Archive member included to satisfy reference by file (symbol)

/home/mustafa/arm-gnu-toolchain-13.2.rel1-x86_64-arm-none-eabi/arm-gnu-toolchain-13.2.Rel1-x86_64-arm-none-eabi/bin/../lib/gcc/arm-none-eabi/13.2.1/thumb/v7-a/nofp/libgcc.a(_udivsi3.o)
                              obj/ff.o (__aeabi_uidiv)
/home/mustafa/arm-gnu-toolchain-13.2.rel1-x86_64-arm-none-eabi/arm-gnu-toolchain-13.2.Rel1-x86_64-arm-none-eabi/bin/../lib/gcc/arm-none-eabi/13.2.1/thumb/v7-a/nofp/libgcc.a(_dvmd_tls.o)
                              /home/mustafa/arm-gnu-toolchain-13.2.rel1-x86_64-arm-none-eabi/arm-gnu-toolchain-13.2.Rel1-x86_64-arm-none-eabi/bin/../lib/gcc/arm-none-eabi/13.2.1/thumb/v7-a/nofp/libgcc.a(_udivsi3.o) (__aeabi_idiv0)
/home/mustafa/arm-gnu-toolchain-13.2.rel1-x86_64-arm-none-eabi/arm-gnu-toolchain-13.2.Rel1-x86_64-arm-none-eabi/bin/../lib/gcc/arm-none-eabi/13.2.1/../../../../arm-none-eabi/lib/thumb/v7-a/nofp/libg.a(libc_a-exit.o)
                              obj/syscall.o (exit)
/home/mustafa/arm-gnu-toolchain-13.2.rel1-x86_64-arm-none-eabi/arm-gnu-toolchain-13.2.Rel1-x86_64-arm-none-eabi/bin/../lib/gcc/arm-none-eabi/13.2.1/../../../../arm-none-eabi/lib/thumb/v7-a/nofp/libg.a(libc_a-asctime.o)
                              obj/sp804.o (asctime)
/home/mustafa/arm-gnu-toolchain-13.2.rel1-x86_64-arm-none-eabi/arm-gnu-toolchain-13.2.Rel1-x86_64-arm-none-eabi/bin/../lib/gcc/arm-none-eabi/13.2.1/../../../../arm-none-eabi/lib/thumb/v7-a/nofp/libg.a(libc_a-asctime_r.o)
                              /home/mustafa/arm-gnu-toolchain-13.2.rel1-x86_64-arm-none-eabi/arm-gnu-toolchain-13.2.Rel1-x86_64-arm-none-eabi/bin/../lib/gcc/arm-none-eabi/13.2.1/../../../../arm-none-eabi/lib/thumb/v7-a/nofp/libg.a(libc_a-asctime.o) (asctime_r)
/home/mustafa/arm-gnu-toolchain-13.2.rel1-x86_64-arm-none-eabi/arm-gnu-toolchain-13.2.Rel1-x86_64-arm-none-eabi/bin/../lib/gcc/arm-none-eabi/13.2.1/../../../../arm-none-eabi/lib/thumb/v7-a/nofp/libg.a(libc_a-gmtime.o)
                              obj/diskio.o (gmtime)
/home/mustafa/arm-gnu-toolchain-13.2.rel1-x86_64-arm-none-eabi/arm-gnu-toolchain-13.2.Rel1-x86_64-arm-none-eabi/bin/../lib/gcc/arm-none-eabi/13.2.1/../../../../arm-none-eabi/lib/thumb/v7-a/nofp/libg.a(libc_a-gmtime_r.o)
                              /home/mustafa/arm-gnu-toolchain-13.2.rel1-x86_64-arm-none-eabi/arm-gnu-toolchain-13.2.Rel1-x86_64-arm-none-eabi/bin/../lib/gcc/arm-none-eabi/13.2.1/../../../../arm-none-eabi/lib/thumb/v7-a/nofp/libg.a(libc_a-gmtime.o) (gmtime_r)
/home/mustafa/arm-gnu-toolchain-13.2.rel1-x86_64-arm-none-eabi/arm-gnu-toolchain-13.2.Rel1-x86_64-arm-none-eabi/bin/../lib/gcc/arm-none-eabi/13.2.1/../../../../arm-none-eabi/lib/thumb/v7-a/nofp/libg.a(libc_a-lcltime.o)
                              obj/sp804.o (localtime)
/home/mustafa/arm-gnu-toolchain-13.2.rel1-x86_64-arm-none-eabi/arm-gnu-toolchain-13.2.Rel1-x86_64-arm-none-eabi/bin/../lib/gcc/arm-none-eabi/13.2.1/../../../../arm-none-eabi/lib/thumb/v7-a/nofp/libg.a(libc_a-lcltime_r.o)
                              /home/mustafa/arm-gnu-toolchain-13.2.rel1-x86_64-arm-none-eabi/arm-gnu-toolchain-13.2.Rel1-x86_64-arm-none-eabi/bin/../lib/gcc/arm-none-eabi/13.2.1/../../../../arm-none-eabi/lib/thumb/v7-a/nofp/libg.a(libc_a-lcltime.o) (localtime_r)
/home/mustafa/arm-gnu-toolchain-13.2.rel1-x86_64-arm-none-eabi/arm-gnu-toolchain-13.2.Rel1-x86_64-arm-none-eabi/bin/../lib/gcc/arm-none-eabi/13.2.1/../../../../arm-none-eabi/lib/thumb/v7-a/nofp/libg.a(libc_a-month_lengths.o)
                              /home/mustafa/arm-gnu-toolchain-13.2.rel1-x86_64-arm-none-eabi/arm-gnu-toolchain-13.2.Rel1-x86_64-arm-none-eabi/bin/../lib/gcc/arm-none-eabi/13.2.1/../../../../arm-none-eabi/lib/thumb/v7-a/nofp/libg.a(libc_a-lcltime_r.o) (__month_lengths)
/home/mustafa/arm-gnu-toolchain-13.2.rel1-x86_64-arm-none-eabi/arm-gnu-toolchain-13.2.Rel1-x86_64-arm-none-eabi/bin/../lib/gcc/arm-none-eabi/13.2.1/../../../../arm-none-eabi/lib/thumb/v7-a/nofp/libg.a(libc_a-siprintf.o)
                              /home/mustafa/arm-gnu-toolchain-13.2.rel1-x86_64-arm-none-eabi/arm-gnu-toolchain-13.2.Rel1-x86_64-arm-none-eabi/bin/../lib/gcc/arm-none-eabi/13.2.1/../../../../arm-none-eabi/lib/thumb/v7-a/nofp/libg.a(libc_a-asctime_r.o) (siprintf)
/home/mustafa/arm-gnu-toolchain-13.2.rel1-x86_64-arm-none-eabi/arm-gnu-toolchain-13.2.Rel1-x86_64-arm-none-eabi/bin/../lib/gcc/arm-none-eabi/13.2.1/../../../../arm-none-eabi/lib/thumb/v7-a/nofp/libg.a(libc_a-errno.o)
                              obj/syscall.o (__errno)
/home/mustafa/arm-gnu-toolchain-13.2.rel1-x86_64-arm-none-eabi/arm-gnu-toolchain-13.2.Rel1-x86_64-arm-none-eabi/bin/../lib/gcc/arm-none-eabi/13.2.1/../../../../arm-none-eabi/lib/thumb/v7-a/nofp/libg.a(libc_a-svfiprintf.o)
                              /home/mustafa/arm-gnu-toolchain-13.2.rel1-x86_64-arm-none-eabi/arm-gnu-toolchain-13.2.Rel1-x86_64-arm-none-eabi/bin/../lib/gcc/arm-none-eabi/13.2.1/../../../../arm-none-eabi/lib/thumb/v7-a/nofp/libg.a(libc_a-siprintf.o) (_svfiprintf_r)
/home/mustafa/arm-gnu-toolchain-13.2.rel1-x86_64-arm-none-eabi/arm-gnu-toolchain-13.2.Rel1-x86_64-arm-none-eabi/bin/../lib/gcc/arm-none-eabi/13.2.1/../../../../arm-none-eabi/lib/thumb/v7-a/nofp/libg.a(libc_a-tzcalc_limits.o)
                              /home/mustafa/arm-gnu-toolchain-13.2.rel1-x86_64-arm-none-eabi/arm-gnu-toolchain-13.2.Rel1-x86_64-arm-none-eabi/bin/../lib/gcc/arm-none-eabi/13.2.1/../../../../arm-none-eabi/lib/thumb/v7-a/nofp/libg.a(libc_a-lcltime_r.o) (__tzcalc_limits)
/home/mustafa/arm-gnu-toolchain-13.2.rel1-x86_64-arm-none-eabi/arm-gnu-toolchain-13.2.Rel1-x86_64-arm-none-eabi/bin/../lib/gcc/arm-none-eabi/13.2.1/../../../../arm-none-eabi/lib/thumb/v7-a/nofp/libg.a(libc_a-tzlock.o)
                              /home/mustafa/arm-gnu-toolchain-13.2.rel1-x86_64-arm-none-eabi/arm-gnu-toolchain-13.2.Rel1-x86_64-arm-none-eabi/bin/../lib/gcc/arm-none-eabi/13.2.1/../../../../arm-none-eabi/lib/thumb/v7-a/nofp/libg.a(libc_a-lcltime_r.o) (__tz_lock)
/home/mustafa/arm-gnu-toolchain-13.2.rel1-x86_64-arm-none-eabi/arm-gnu-toolchain-13.2.Rel1-x86_64-arm-none-eabi/bin/../lib/gcc/arm-none-eabi/13.2.1/../../../../arm-none-eabi/lib/thumb/v7-a/nofp/libg.a(libc_a-malloc.o)
                              obj/pl041.o (malloc)
/home/mustafa/arm-gnu-toolchain-13.2.rel1-x86_64-arm-none-eabi/arm-gnu-toolchain-13.2.Rel1-x86_64-arm-none-eabi/bin/../lib/gcc/arm-none-eabi/13.2.1/../../../../arm-none-eabi/lib/thumb/v7-a/nofp/libg.a(libc_a-mallocr.o)
                              /home/mustafa/arm-gnu-toolchain-13.2.rel1-x86_64-arm-none-eabi/arm-gnu-toolchain-13.2.Rel1-x86_64-arm-none-eabi/bin/../lib/gcc/arm-none-eabi/13.2.1/../../../../arm-none-eabi/lib/thumb/v7-a/nofp/libg.a(libc_a-svfiprintf.o) (_malloc_r)
/home/mustafa/arm-gnu-toolchain-13.2.rel1-x86_64-arm-none-eabi/arm-gnu-toolchain-13.2.Rel1-x86_64-arm-none-eabi/bin/../lib/gcc/arm-none-eabi/13.2.1/../../../../arm-none-eabi/lib/thumb/v7-a/nofp/libg.a(libc_a-__call_atexit.o)
                              /home/mustafa/arm-gnu-toolchain-13.2.rel1-x86_64-arm-none-eabi/arm-gnu-toolchain-13.2.Rel1-x86_64-arm-none-eabi/bin/../lib/gcc/arm-none-eabi/13.2.1/../../../../arm-none-eabi/lib/thumb/v7-a/nofp/libg.a(libc_a-exit.o) (__call_exitprocs)
/home/mustafa/arm-gnu-toolchain-13.2.rel1-x86_64-arm-none-eabi/arm-gnu-toolchain-13.2.Rel1-x86_64-arm-none-eabi/bin/../lib/gcc/arm-none-eabi/13.2.1/../../../../arm-none-eabi/lib/thumb/v7-a/nofp/libg.a(libc_a-memcmp.o)
                              obj/ff.o (memcmp)
/home/mustafa/arm-gnu-toolchain-13.2.rel1-x86_64-arm-none-eabi/arm-gnu-toolchain-13.2.Rel1-x86_64-arm-none-eabi/bin/../lib/gcc/arm-none-eabi/13.2.1/../../../../arm-none-eabi/lib/thumb/v7-a/nofp/libg.a(libc_a-memmove.o)
                              /home/mustafa/arm-gnu-toolchain-13.2.rel1-x86_64-arm-none-eabi/arm-gnu-toolchain-13.2.Rel1-x86_64-arm-none-eabi/bin/../lib/gcc/arm-none-eabi/13.2.1/../../../../arm-none-eabi/lib/thumb/v7-a/nofp/libg.a(libc_a-svfiprintf.o) (memmove)
/home/mustafa/arm-gnu-toolchain-13.2.rel1-x86_64-arm-none-eabi/arm-gnu-toolchain-13.2.Rel1-x86_64-arm-none-eabi/bin/../lib/gcc/arm-none-eabi/13.2.1/../../../../arm-none-eabi/lib/thumb/v7-a/nofp/libg.a(libc_a-memset.o)
                              obj/ff.o (memset)
/home/mustafa/arm-gnu-toolchain-13.2.rel1-x86_64-arm-none-eabi/arm-gnu-toolchain-13.2.Rel1-x86_64-arm-none-eabi/bin/../lib/gcc/arm-none-eabi/13.2.1/../../../../arm-none-eabi/lib/thumb/v7-a/nofp/libg.a(libc_a-wcrtomb.o)
                              /home/mustafa/arm-gnu-toolchain-13.2.rel1-x86_64-arm-none-eabi/arm-gnu-toolchain-13.2.Rel1-x86_64-arm-none-eabi/bin/../lib/gcc/arm-none-eabi/13.2.1/../../../../arm-none-eabi/lib/thumb/v7-a/nofp/libg.a(libc_a-svfiprintf.o) (_wcrtomb_r)
/home/mustafa/arm-gnu-toolchain-13.2.rel1-x86_64-arm-none-eabi/arm-gnu-toolchain-13.2.Rel1-x86_64-arm-none-eabi/bin/../lib/gcc/arm-none-eabi/13.2.1/../../../../arm-none-eabi/lib/thumb/v7-a/nofp/libg.a(libc_a-tzset.o)
                              /home/mustafa/arm-gnu-toolchain-13.2.rel1-x86_64-arm-none-eabi/arm-gnu-toolchain-13.2.Rel1-x86_64-arm-none-eabi/bin/../lib/gcc/arm-none-eabi/13.2.1/../../../../arm-none-eabi/lib/thumb/v7-a/nofp/libg.a(libc_a-lcltime_r.o) (_tzset_unlocked)
/home/mustafa/arm-gnu-toolchain-13.2.rel1-x86_64-arm-none-eabi/arm-gnu-toolchain-13.2.Rel1-x86_64-arm-none-eabi/bin/../lib/gcc/arm-none-eabi/13.2.1/../../../../arm-none-eabi/lib/thumb/v7-a/nofp/libg.a(libc_a-tzset_r.o)
                              /home/mustafa/arm-gnu-toolchain-13.2.rel1-x86_64-arm-none-eabi/arm-gnu-toolchain-13.2.Rel1-x86_64-arm-none-eabi/bin/../lib/gcc/arm-none-eabi/13.2.1/../../../../arm-none-eabi/lib/thumb/v7-a/nofp/libg.a(libc_a-tzset.o) (_tzset_unlocked_r)
/home/mustafa/arm-gnu-toolchain-13.2.rel1-x86_64-arm-none-eabi/arm-gnu-toolchain-13.2.Rel1-x86_64-arm-none-eabi/bin/../lib/gcc/arm-none-eabi/13.2.1/../../../../arm-none-eabi/lib/thumb/v7-a/nofp/libg.a(libc_a-tzvars.o)
                              /home/mustafa/arm-gnu-toolchain-13.2.rel1-x86_64-arm-none-eabi/arm-gnu-toolchain-13.2.Rel1-x86_64-arm-none-eabi/bin/../lib/gcc/arm-none-eabi/13.2.1/../../../../arm-none-eabi/lib/thumb/v7-a/nofp/libg.a(libc_a-tzset_r.o) (_timezone)
/home/mustafa/arm-gnu-toolchain-13.2.rel1-x86_64-arm-none-eabi/arm-gnu-toolchain-13.2.Rel1-x86_64-arm-none-eabi/bin/../lib/gcc/arm-none-eabi/13.2.1/../../../../arm-none-eabi/lib/thumb/v7-a/nofp/libg.a(libc_a-fini.o)
                              /home/mustafa/arm-gnu-toolchain-13.2.rel1-x86_64-arm-none-eabi/arm-gnu-toolchain-13.2.Rel1-x86_64-arm-none-eabi/bin/../lib/gcc/arm-none-eabi/13.2.1/../../../../arm-none-eabi/lib/thumb/v7-a/nofp/libg.a(libc_a-__call_atexit.o) (__libc_fini_array)
/home/mustafa/arm-gnu-toolchain-13.2.rel1-x86_64-arm-none-eabi/arm-gnu-toolchain-13.2.Rel1-x86_64-arm-none-eabi/bin/../lib/gcc/arm-none-eabi/13.2.1/../../../../arm-none-eabi/lib/thumb/v7-a/nofp/libg.a(libc_a-lock.o)
                              /home/mustafa/arm-gnu-toolchain-13.2.rel1-x86_64-arm-none-eabi/arm-gnu-toolchain-13.2.Rel1-x86_64-arm-none-eabi/bin/../lib/gcc/arm-none-eabi/13.2.1/../../../../arm-none-eabi/lib/thumb/v7-a/nofp/libg.a(libc_a-tzlock.o) (__retarget_lock_acquire)
/home/mustafa/arm-gnu-toolchain-13.2.rel1-x86_64-arm-none-eabi/arm-gnu-toolchain-13.2.Rel1-x86_64-arm-none-eabi/bin/../lib/gcc/arm-none-eabi/13.2.1/../../../../arm-none-eabi/lib/thumb/v7-a/nofp/libg.a(libc_a-locale.o)
                              /home/mustafa/arm-gnu-toolchain-13.2.rel1-x86_64-arm-none-eabi/arm-gnu-toolchain-13.2.Rel1-x86_64-arm-none-eabi/bin/../lib/gcc/arm-none-eabi/13.2.1/../../../../arm-none-eabi/lib/thumb/v7-a/nofp/libg.a(libc_a-svfiprintf.o) (__global_locale)
/home/mustafa/arm-gnu-toolchain-13.2.rel1-x86_64-arm-none-eabi/arm-gnu-toolchain-13.2.Rel1-x86_64-arm-none-eabi/bin/../lib/gcc/arm-none-eabi/13.2.1/../../../../arm-none-eabi/lib/thumb/v7-a/nofp/libg.a(libc_a-localeconv.o)
                              /home/mustafa/arm-gnu-toolchain-13.2.rel1-x86_64-arm-none-eabi/arm-gnu-toolchain-13.2.Rel1-x86_64-arm-none-eabi/bin/../lib/gcc/arm-none-eabi/13.2.1/../../../../arm-none-eabi/lib/thumb/v7-a/nofp/libg.a(libc_a-svfiprintf.o) (_localeconv_r)
/home/mustafa/arm-gnu-toolchain-13.2.rel1-x86_64-arm-none-eabi/arm-gnu-toolchain-13.2.Rel1-x86_64-arm-none-eabi/bin/../lib/gcc/arm-none-eabi/13.2.1/../../../../arm-none-eabi/lib/thumb/v7-a/nofp/libg.a(libc_a-sysconf.o)
                              /home/mustafa/arm-gnu-toolchain-13.2.rel1-x86_64-arm-none-eabi/arm-gnu-toolchain-13.2.Rel1-x86_64-arm-none-eabi/bin/../lib/gcc/arm-none-eabi/13.2.1/../../../../arm-none-eabi/lib/thumb/v7-a/nofp/libg.a(libc_a-mallocr.o) (sysconf)
/home/mustafa/arm-gnu-toolchain-13.2.rel1-x86_64-arm-none-eabi/arm-gnu-toolchain-13.2.Rel1-x86_64-arm-none-eabi/bin/../lib/gcc/arm-none-eabi/13.2.1/../../../../arm-none-eabi/lib/thumb/v7-a/nofp/libg.a(libc_a-strcmp.o)
                              /home/mustafa/arm-gnu-toolchain-13.2.rel1-x86_64-arm-none-eabi/arm-gnu-toolchain-13.2.Rel1-x86_64-arm-none-eabi/bin/../lib/gcc/arm-none-eabi/13.2.1/../../../../arm-none-eabi/lib/thumb/v7-a/nofp/libg.a(libc_a-tzset_r.o) (strcmp)
/home/mustafa/arm-gnu-toolchain-13.2.rel1-x86_64-arm-none-eabi/arm-gnu-toolchain-13.2.Rel1-x86_64-arm-none-eabi/bin/../lib/gcc/arm-none-eabi/13.2.1/../../../../arm-none-eabi/lib/thumb/v7-a/nofp/libg.a(libc_a-printf.o)
                              obj/interrupt.o (printf)
/home/mustafa/arm-gnu-toolchain-13.2.rel1-x86_64-arm-none-eabi/arm-gnu-toolchain-13.2.Rel1-x86_64-arm-none-eabi/bin/../lib/gcc/arm-none-eabi/13.2.1/../../../../arm-none-eabi/lib/thumb/v7-a/nofp/libg.a(libc_a-strcpy.o)
                              /home/mustafa/arm-gnu-toolchain-13.2.rel1-x86_64-arm-none-eabi/arm-gnu-toolchain-13.2.Rel1-x86_64-arm-none-eabi/bin/../lib/gcc/arm-none-eabi/13.2.1/../../../../arm-none-eabi/lib/thumb/v7-a/nofp/libg.a(libc_a-tzset_r.o) (strcpy)
/home/mustafa/arm-gnu-toolchain-13.2.rel1-x86_64-arm-none-eabi/arm-gnu-toolchain-13.2.Rel1-x86_64-arm-none-eabi/bin/../lib/gcc/arm-none-eabi/13.2.1/../../../../arm-none-eabi/lib/thumb/v7-a/nofp/libg.a(libc_a-putchar.o)
                              obj/pl181.o (putchar)
/home/mustafa/arm-gnu-toolchain-13.2.rel1-x86_64-arm-none-eabi/arm-gnu-toolchain-13.2.Rel1-x86_64-arm-none-eabi/bin/../lib/gcc/arm-none-eabi/13.2.1/../../../../arm-none-eabi/lib/thumb/v7-a/nofp/libg.a(libc_a-puts.o)
                              obj/interrupt.o (puts)
/home/mustafa/arm-gnu-toolchain-13.2.rel1-x86_64-arm-none-eabi/arm-gnu-toolchain-13.2.Rel1-x86_64-arm-none-eabi/bin/../lib/gcc/arm-none-eabi/13.2.1/../../../../arm-none-eabi/lib/thumb/v7-a/nofp/libg.a(libc_a-mlock.o)
                              /home/mustafa/arm-gnu-toolchain-13.2.rel1-x86_64-arm-none-eabi/arm-gnu-toolchain-13.2.Rel1-x86_64-arm-none-eabi/bin/../lib/gcc/arm-none-eabi/13.2.1/../../../../arm-none-eabi/lib/thumb/v7-a/nofp/libg.a(libc_a-mallocr.o) (__malloc_lock)
/home/mustafa/arm-gnu-toolchain-13.2.rel1-x86_64-arm-none-eabi/arm-gnu-toolchain-13.2.Rel1-x86_64-arm-none-eabi/bin/../lib/gcc/arm-none-eabi/13.2.1/../../../../arm-none-eabi/lib/thumb/v7-a/nofp/libg.a(libc_a-atexit.o)
                              /home/mustafa/arm-gnu-toolchain-13.2.rel1-x86_64-arm-none-eabi/arm-gnu-toolchain-13.2.Rel1-x86_64-arm-none-eabi/bin/../lib/gcc/arm-none-eabi/13.2.1/../../../../arm-none-eabi/lib/thumb/v7-a/nofp/libg.a(libc_a-__call_atexit.o) (atexit)
/home/mustafa/arm-gnu-toolchain-13.2.rel1-x86_64-arm-none-eabi/arm-gnu-toolchain-13.2.Rel1-x86_64-arm-none-eabi/bin/../lib/gcc/arm-none-eabi/13.2.1/../../../../arm-none-eabi/lib/thumb/v7-a/nofp/libg.a(libc_a-strchr.o)
                              obj/ff.o (strchr)
/home/mustafa/arm-gnu-toolchain-13.2.rel1-x86_64-arm-none-eabi/arm-gnu-toolchain-13.2.Rel1-x86_64-arm-none-eabi/bin/../lib/gcc/arm-none-eabi/13.2.1/../../../../arm-none-eabi/lib/thumb/v7-a/nofp/libg.a(libc_a-wcsrtombs.o)
                              /home/mustafa/arm-gnu-toolchain-13.2.rel1-x86_64-arm-none-eabi/arm-gnu-toolchain-13.2.Rel1-x86_64-arm-none-eabi/bin/../lib/gcc/arm-none-eabi/13.2.1/../../../../arm-none-eabi/lib/thumb/v7-a/nofp/libg.a(libc_a-svfiprintf.o) (_wcsrtombs_r)
/home/mustafa/arm-gnu-toolchain-13.2.rel1-x86_64-arm-none-eabi/arm-gnu-toolchain-13.2.Rel1-x86_64-arm-none-eabi/bin/../lib/gcc/arm-none-eabi/13.2.1/../../../../arm-none-eabi/lib/thumb/v7-a/nofp/libg.a(libc_a-ctype_.o)
                              /home/mustafa/arm-gnu-toolchain-13.2.rel1-x86_64-arm-none-eabi/arm-gnu-toolchain-13.2.Rel1-x86_64-arm-none-eabi/bin/../lib/gcc/arm-none-eabi/13.2.1/../../../../arm-none-eabi/lib/thumb/v7-a/nofp/libg.a(libc_a-locale.o) (__set_ctype)
/home/mustafa/arm-gnu-toolchain-13.2.rel1-x86_64-arm-none-eabi/arm-gnu-toolchain-13.2.Rel1-x86_64-arm-none-eabi/bin/../lib/gcc/arm-none-eabi/13.2.1/../../../../arm-none-eabi/lib/thumb/v7-a/nofp/libg.a(libc_a-impure.o)
                              /home/mustafa/arm-gnu-toolchain-13.2.rel1-x86_64-arm-none-eabi/arm-gnu-toolchain-13.2.Rel1-x86_64-arm-none-eabi/bin/../lib/gcc/arm-none-eabi/13.2.1/../../../../arm-none-eabi/lib/thumb/v7-a/nofp/libg.a(libc_a-asctime.o) (_impure_ptr)
/home/mustafa/arm-gnu-toolchain-13.2.rel1-x86_64-arm-none-eabi/arm-gnu-toolchain-13.2.Rel1-x86_64-arm-none-eabi/bin/../lib/gcc/arm-none-eabi/13.2.1/../../../../arm-none-eabi/lib/thumb/v7-a/nofp/libg.a(libc_a-findfp.o)
                              /home/mustafa/arm-gnu-toolchain-13.2.rel1-x86_64-arm-none-eabi/arm-gnu-toolchain-13.2.Rel1-x86_64-arm-none-eabi/bin/../lib/gcc/arm-none-eabi/13.2.1/../../../../arm-none-eabi/lib/thumb/v7-a/nofp/libg.a(libc_a-impure.o) (__sf)
/home/mustafa/arm-gnu-toolchain-13.2.rel1-x86_64-arm-none-eabi/arm-gnu-toolchain-13.2.Rel1-x86_64-arm-none-eabi/bin/../lib/gcc/arm-none-eabi/13.2.1/../../../../arm-none-eabi/lib/thumb/v7-a/nofp/libg.a(libc_a-memchr.o)
                              /home/mustafa/arm-gnu-toolchain-13.2.rel1-x86_64-arm-none-eabi/arm-gnu-toolchain-13.2.Rel1-x86_64-arm-none-eabi/bin/../lib/gcc/arm-none-eabi/13.2.1/../../../../arm-none-eabi/lib/thumb/v7-a/nofp/libg.a(libc_a-svfiprintf.o) (memchr)
/home/mustafa/arm-gnu-toolchain-13.2.rel1-x86_64-arm-none-eabi/arm-gnu-toolchain-13.2.Rel1-x86_64-arm-none-eabi/bin/../lib/gcc/arm-none-eabi/13.2.1/../../../../arm-none-eabi/lib/thumb/v7-a/nofp/libg.a(libc_a-memcpy.o)
                              obj/ff.o (memcpy)
/home/mustafa/arm-gnu-toolchain-13.2.rel1-x86_64-arm-none-eabi/arm-gnu-toolchain-13.2.Rel1-x86_64-arm-none-eabi/bin/../lib/gcc/arm-none-eabi/13.2.1/../../../../arm-none-eabi/lib/thumb/v7-a/nofp/libg.a(libc_a-reallocr.o)
                              /home/mustafa/arm-gnu-toolchain-13.2.rel1-x86_64-arm-none-eabi/arm-gnu-toolchain-13.2.Rel1-x86_64-arm-none-eabi/bin/../lib/gcc/arm-none-eabi/13.2.1/../../../../arm-none-eabi/lib/thumb/v7-a/nofp/libg.a(libc_a-svfiprintf.o) (_realloc_r)
/home/mustafa/arm-gnu-toolchain-13.2.rel1-x86_64-arm-none-eabi/arm-gnu-toolchain-13.2.Rel1-x86_64-arm-none-eabi/bin/../lib/gcc/arm-none-eabi/13.2.1/../../../../arm-none-eabi/lib/thumb/v7-a/nofp/libg.a(libc_a-strlcpy.o)
                              /home/mustafa/arm-gnu-toolchain-13.2.rel1-x86_64-arm-none-eabi/arm-gnu-toolchain-13.2.Rel1-x86_64-arm-none-eabi/bin/../lib/gcc/arm-none-eabi/13.2.1/../../../../arm-none-eabi/lib/thumb/v7-a/nofp/libg.a(libc_a-locale.o) (strlcpy)
/home/mustafa/arm-gnu-toolchain-13.2.rel1-x86_64-arm-none-eabi/arm-gnu-toolchain-13.2.Rel1-x86_64-arm-none-eabi/bin/../lib/gcc/arm-none-eabi/13.2.1/../../../../arm-none-eabi/lib/thumb/v7-a/nofp/libg.a(libc_a-freer.o)
                              /home/mustafa/arm-gnu-toolchain-13.2.rel1-x86_64-arm-none-eabi/arm-gnu-toolchain-13.2.Rel1-x86_64-arm-none-eabi/bin/../lib/gcc/arm-none-eabi/13.2.1/../../../../arm-none-eabi/lib/thumb/v7-a/nofp/libg.a(libc_a-svfiprintf.o) (_free_r)
/home/mustafa/arm-gnu-toolchain-13.2.rel1-x86_64-arm-none-eabi/arm-gnu-toolchain-13.2.Rel1-x86_64-arm-none-eabi/bin/../lib/gcc/arm-none-eabi/13.2.1/../../../../arm-none-eabi/lib/thumb/v7-a/nofp/libg.a(libc_a-strtol.o)
                              /home/mustafa/arm-gnu-toolchain-13.2.rel1-x86_64-arm-none-eabi/arm-gnu-toolchain-13.2.Rel1-x86_64-arm-none-eabi/bin/../lib/gcc/arm-none-eabi/13.2.1/../../../../arm-none-eabi/lib/thumb/v7-a/nofp/libg.a(libc_a-locale.o) (strtol)
/home/mustafa/arm-gnu-toolchain-13.2.rel1-x86_64-arm-none-eabi/arm-gnu-toolchain-13.2.Rel1-x86_64-arm-none-eabi/bin/../lib/gcc/arm-none-eabi/13.2.1/../../../../arm-none-eabi/lib/thumb/v7-a/nofp/libg.a(libc_a-strtoul.o)
                              /home/mustafa/arm-gnu-toolchain-13.2.rel1-x86_64-arm-none-eabi/arm-gnu-toolchain-13.2.Rel1-x86_64-arm-none-eabi/bin/../lib/gcc/arm-none-eabi/13.2.1/../../../../arm-none-eabi/lib/thumb/v7-a/nofp/libg.a(libc_a-tzset_r.o) (strtoul)
/home/mustafa/arm-gnu-toolchain-13.2.rel1-x86_64-arm-none-eabi/arm-gnu-toolchain-13.2.Rel1-x86_64-arm-none-eabi/bin/../lib/gcc/arm-none-eabi/13.2.1/../../../../arm-none-eabi/lib/thumb/v7-a/nofp/libg.a(libc_a-strncasecmp.o)
                              /home/mustafa/arm-gnu-toolchain-13.2.rel1-x86_64-arm-none-eabi/arm-gnu-toolchain-13.2.Rel1-x86_64-arm-none-eabi/bin/../lib/gcc/arm-none-eabi/13.2.1/../../../../arm-none-eabi/lib/thumb/v7-a/nofp/libg.a(libc_a-locale.o) (strncasecmp)
/home/mustafa/arm-gnu-toolchain-13.2.rel1-x86_64-arm-none-eabi/arm-gnu-toolchain-13.2.Rel1-x86_64-arm-none-eabi/bin/../lib/gcc/arm-none-eabi/13.2.1/../../../../arm-none-eabi/lib/thumb/v7-a/nofp/libg.a(libc_a-getenv_r.o)
                              /home/mustafa/arm-gnu-toolchain-13.2.rel1-x86_64-arm-none-eabi/arm-gnu-toolchain-13.2.Rel1-x86_64-arm-none-eabi/bin/../lib/gcc/arm-none-eabi/13.2.1/../../../../arm-none-eabi/lib/thumb/v7-a/nofp/libg.a(libc_a-tzset_r.o) (_getenv_r)
/home/mustafa/arm-gnu-toolchain-13.2.rel1-x86_64-arm-none-eabi/arm-gnu-toolchain-13.2.Rel1-x86_64-arm-none-eabi/bin/../lib/gcc/arm-none-eabi/13.2.1/../../../../arm-none-eabi/lib/thumb/v7-a/nofp/libg.a(libc_a-strncpy.o)
                              /home/mustafa/arm-gnu-toolchain-13.2.rel1-x86_64-arm-none-eabi/arm-gnu-toolchain-13.2.Rel1-x86_64-arm-none-eabi/bin/../lib/gcc/arm-none-eabi/13.2.1/../../../../arm-none-eabi/lib/thumb/v7-a/nofp/libg.a(libc_a-svfiprintf.o) (strncpy)
/home/mustafa/arm-gnu-toolchain-13.2.rel1-x86_64-arm-none-eabi/arm-gnu-toolchain-13.2.Rel1-x86_64-arm-none-eabi/bin/../lib/gcc/arm-none-eabi/13.2.1/../../../../arm-none-eabi/lib/thumb/v7-a/nofp/libg.a(libc_a-gettzinfo.o)
                              /home/mustafa/arm-gnu-toolchain-13.2.rel1-x86_64-arm-none-eabi/arm-gnu-toolchain-13.2.Rel1-x86_64-arm-none-eabi/bin/../lib/gcc/arm-none-eabi/13.2.1/../../../../arm-none-eabi/lib/thumb/v7-a/nofp/libg.a(libc_a-lcltime_r.o) (__gettzinfo)
/home/mustafa/arm-gnu-toolchain-13.2.rel1-x86_64-arm-none-eabi/arm-gnu-toolchain-13.2.Rel1-x86_64-arm-none-eabi/bin/../lib/gcc/arm-none-eabi/13.2.1/../../../../arm-none-eabi/lib/thumb/v7-a/nofp/libg.a(libc_a-strlen.o)
                              /home/mustafa/arm-gnu-toolchain-13.2.rel1-x86_64-arm-none-eabi/arm-gnu-toolchain-13.2.Rel1-x86_64-arm-none-eabi/bin/../lib/gcc/arm-none-eabi/13.2.1/../../../../arm-none-eabi/lib/thumb/v7-a/nofp/libg.a(libc_a-svfiprintf.o) (strlen)
/home/mustafa/arm-gnu-toolchain-13.2.rel1-x86_64-arm-none-eabi/arm-gnu-toolchain-13.2.Rel1-x86_64-arm-none-eabi/bin/../lib/gcc/arm-none-eabi/13.2.1/../../../../arm-none-eabi/lib/thumb/v7-a/nofp/libg.a(libc_a-stdio.o)
                              /home/mustafa/arm-gnu-toolchain-13.2.rel1-x86_64-arm-none-eabi/arm-gnu-toolchain-13.2.Rel1-x86_64-arm-none-eabi/bin/../lib/gcc/arm-none-eabi/13.2.1/../../../../arm-none-eabi/lib/thumb/v7-a/nofp/libg.a(libc_a-findfp.o) (__sread)
/home/mustafa/arm-gnu-toolchain-13.2.rel1-x86_64-arm-none-eabi/arm-gnu-toolchain-13.2.Rel1-x86_64-arm-none-eabi/bin/../lib/gcc/arm-none-eabi/13.2.1/../../../../arm-none-eabi/lib/thumb/v7-a/nofp/libg.a(libc_a-wctomb_r.o)
                              /home/mustafa/arm-gnu-toolchain-13.2.rel1-x86_64-arm-none-eabi/arm-gnu-toolchain-13.2.Rel1-x86_64-arm-none-eabi/bin/../lib/gcc/arm-none-eabi/13.2.1/../../../../arm-none-eabi/lib/thumb/v7-a/nofp/libg.a(libc_a-locale.o) (__ascii_wctomb)
/home/mustafa/arm-gnu-toolchain-13.2.rel1-x86_64-arm-none-eabi/arm-gnu-toolchain-13.2.Rel1-x86_64-arm-none-eabi/bin/../lib/gcc/arm-none-eabi/13.2.1/../../../../arm-none-eabi/lib/thumb/v7-a/nofp/libg.a(libc_a-sbrkr.o)
                              /home/mustafa/arm-gnu-toolchain-13.2.rel1-x86_64-arm-none-eabi/arm-gnu-toolchain-13.2.Rel1-x86_64-arm-none-eabi/bin/../lib/gcc/arm-none-eabi/13.2.1/../../../../arm-none-eabi/lib/thumb/v7-a/nofp/libg.a(libc_a-mallocr.o) (_sbrk_r)
/home/mustafa/arm-gnu-toolchain-13.2.rel1-x86_64-arm-none-eabi/arm-gnu-toolchain-13.2.Rel1-x86_64-arm-none-eabi/bin/../lib/gcc/arm-none-eabi/13.2.1/../../../../arm-none-eabi/lib/thumb/v7-a/nofp/libg.a(libc_a-fvwrite.o)
                              /home/mustafa/arm-gnu-toolchain-13.2.rel1-x86_64-arm-none-eabi/arm-gnu-toolchain-13.2.Rel1-x86_64-arm-none-eabi/bin/../lib/gcc/arm-none-eabi/13.2.1/../../../../arm-none-eabi/lib/thumb/v7-a/nofp/libg.a(libc_a-puts.o) (__sfvwrite_r)
/home/mustafa/arm-gnu-toolchain-13.2.rel1-x86_64-arm-none-eabi/arm-gnu-toolchain-13.2.Rel1-x86_64-arm-none-eabi/bin/../lib/gcc/arm-none-eabi/13.2.1/../../../../arm-none-eabi/lib/thumb/v7-a/nofp/libg.a(libc_a-fwalk.o)
                              /home/mustafa/arm-gnu-toolchain-13.2.rel1-x86_64-arm-none-eabi/arm-gnu-toolchain-13.2.Rel1-x86_64-arm-none-eabi/bin/../lib/gcc/arm-none-eabi/13.2.1/../../../../arm-none-eabi/lib/thumb/v7-a/nofp/libg.a(libc_a-findfp.o) (_fwalk_sglue)
/home/mustafa/arm-gnu-toolchain-13.2.rel1-x86_64-arm-none-eabi/arm-gnu-toolchain-13.2.Rel1-x86_64-arm-none-eabi/bin/../lib/gcc/arm-none-eabi/13.2.1/../../../../arm-none-eabi/lib/thumb/v7-a/nofp/libg.a(libc_a-writer.o)
                              /home/mustafa/arm-gnu-toolchain-13.2.rel1-x86_64-arm-none-eabi/arm-gnu-toolchain-13.2.Rel1-x86_64-arm-none-eabi/bin/../lib/gcc/arm-none-eabi/13.2.1/../../../../arm-none-eabi/lib/thumb/v7-a/nofp/libg.a(libc_a-stdio.o) (_write_r)
/home/mustafa/arm-gnu-toolchain-13.2.rel1-x86_64-arm-none-eabi/arm-gnu-toolchain-13.2.Rel1-x86_64-arm-none-eabi/bin/../lib/gcc/arm-none-eabi/13.2.1/../../../../arm-none-eabi/lib/thumb/v7-a/nofp/libg.a(libc_a-siscanf.o)
                              /home/mustafa/arm-gnu-toolchain-13.2.rel1-x86_64-arm-none-eabi/arm-gnu-toolchain-13.2.Rel1-x86_64-arm-none-eabi/bin/../lib/gcc/arm-none-eabi/13.2.1/../../../../arm-none-eabi/lib/thumb/v7-a/nofp/libg.a(libc_a-tzset_r.o) (siscanf)
/home/mustafa/arm-gnu-toolchain-13.2.rel1-x86_64-arm-none-eabi/arm-gnu-toolchain-13.2.Rel1-x86_64-arm-none-eabi/bin/../lib/gcc/arm-none-eabi/13.2.1/../../../../arm-none-eabi/lib/thumb/v7-a/nofp/libg.a(libc_a-svfiscanf.o)
                              /home/mustafa/arm-gnu-toolchain-13.2.rel1-x86_64-arm-none-eabi/arm-gnu-toolchain-13.2.Rel1-x86_64-arm-none-eabi/bin/../lib/gcc/arm-none-eabi/13.2.1/../../../../arm-none-eabi/lib/thumb/v7-a/nofp/libg.a(libc_a-siscanf.o) (__ssvfiscanf_r)
/home/mustafa/arm-gnu-toolchain-13.2.rel1-x86_64-arm-none-eabi/arm-gnu-toolchain-13.2.Rel1-x86_64-arm-none-eabi/bin/../lib/gcc/arm-none-eabi/13.2.1/../../../../arm-none-eabi/lib/thumb/v7-a/nofp/libg.a(libc_a-vfprintf.o)
                              /home/mustafa/arm-gnu-toolchain-13.2.rel1-x86_64-arm-none-eabi/arm-gnu-toolchain-13.2.Rel1-x86_64-arm-none-eabi/bin/../lib/gcc/arm-none-eabi/13.2.1/../../../../arm-none-eabi/lib/thumb/v7-a/nofp/libg.a(libc_a-printf.o) (_vfprintf_r)
/home/mustafa/arm-gnu-toolchain-13.2.rel1-x86_64-arm-none-eabi/arm-gnu-toolchain-13.2.Rel1-x86_64-arm-none-eabi/bin/../lib/gcc/arm-none-eabi/13.2.1/../../../../arm-none-eabi/lib/thumb/v7-a/nofp/libg.a(libc_a-vfiprintf.o)
                              /home/mustafa/arm-gnu-toolchain-13.2.rel1-x86_64-arm-none-eabi/arm-gnu-toolchain-13.2.Rel1-x86_64-arm-none-eabi/bin/../lib/gcc/arm-none-eabi/13.2.1/../../../../arm-none-eabi/lib/thumb/v7-a/nofp/libg.a(libc_a-vfprintf.o) (__sprint_r)
/home/mustafa/arm-gnu-toolchain-13.2.rel1-x86_64-arm-none-eabi/arm-gnu-toolchain-13.2.Rel1-x86_64-arm-none-eabi/bin/../lib/gcc/arm-none-eabi/13.2.1/../../../../arm-none-eabi/lib/thumb/v7-a/nofp/libg.a(libc_a-__atexit.o)
                              /home/mustafa/arm-gnu-toolchain-13.2.rel1-x86_64-arm-none-eabi/arm-gnu-toolchain-13.2.Rel1-x86_64-arm-none-eabi/bin/../lib/gcc/arm-none-eabi/13.2.1/../../../../arm-none-eabi/lib/thumb/v7-a/nofp/libg.a(libc_a-atexit.o) (__register_exitproc)
/home/mustafa/arm-gnu-toolchain-13.2.rel1-x86_64-arm-none-eabi/arm-gnu-toolchain-13.2.Rel1-x86_64-arm-none-eabi/bin/../lib/gcc/arm-none-eabi/13.2.1/../../../../arm-none-eabi/lib/thumb/v7-a/nofp/libg.a(libc_a-mbtowc_r.o)
                              /home/mustafa/arm-gnu-toolchain-13.2.rel1-x86_64-arm-none-eabi/arm-gnu-toolchain-13.2.Rel1-x86_64-arm-none-eabi/bin/../lib/gcc/arm-none-eabi/13.2.1/../../../../arm-none-eabi/lib/thumb/v7-a/nofp/libg.a(libc_a-locale.o) (__ascii_mbtowc)
/home/mustafa/arm-gnu-toolchain-13.2.rel1-x86_64-arm-none-eabi/arm-gnu-toolchain-13.2.Rel1-x86_64-arm-none-eabi/bin/../lib/gcc/arm-none-eabi/13.2.1/../../../../arm-none-eabi/lib/thumb/v7-a/nofp/libg.a(libc_a-mbrtowc.o)
                              /home/mustafa/arm-gnu-toolchain-13.2.rel1-x86_64-arm-none-eabi/arm-gnu-toolchain-13.2.Rel1-x86_64-arm-none-eabi/bin/../lib/gcc/arm-none-eabi/13.2.1/../../../../arm-none-eabi/lib/thumb/v7-a/nofp/libg.a(libc_a-svfiscanf.o) (_mbrtowc_r)
/home/mustafa/arm-gnu-toolchain-13.2.rel1-x86_64-arm-none-eabi/arm-gnu-toolchain-13.2.Rel1-x86_64-arm-none-eabi/bin/../lib/gcc/arm-none-eabi/13.2.1/../../../../arm-none-eabi/lib/thumb/v7-a/nofp/libg.a(libc_a-strcasecmp.o)
                              /home/mustafa/arm-gnu-toolchain-13.2.rel1-x86_64-arm-none-eabi/arm-gnu-toolchain-13.2.Rel1-x86_64-arm-none-eabi/bin/../lib/gcc/arm-none-eabi/13.2.1/../../../../arm-none-eabi/lib/thumb/v7-a/nofp/libg.a(libc_a-locale.o) (strcasecmp)
/home/mustafa/arm-gnu-toolchain-13.2.rel1-x86_64-arm-none-eabi/arm-gnu-toolchain-13.2.Rel1-x86_64-arm-none-eabi/bin/../lib/gcc/arm-none-eabi/13.2.1/../../../../arm-none-eabi/lib/thumb/v7-a/nofp/libg.a(libc_a-strcat.o)
                              /home/mustafa/arm-gnu-toolchain-13.2.rel1-x86_64-arm-none-eabi/arm-gnu-toolchain-13.2.Rel1-x86_64-arm-none-eabi/bin/../lib/gcc/arm-none-eabi/13.2.1/../../../../arm-none-eabi/lib/thumb/v7-a/nofp/libg.a(libc_a-locale.o) (strcat)
/home/mustafa/arm-gnu-toolchain-13.2.rel1-x86_64-arm-none-eabi/arm-gnu-toolchain-13.2.Rel1-x86_64-arm-none-eabi/bin/../lib/gcc/arm-none-eabi/13.2.1/../../../../arm-none-eabi/lib/thumb/v7-a/nofp/libg.a(libc_a-fclose.o)
                              /home/mustafa/arm-gnu-toolchain-13.2.rel1-x86_64-arm-none-eabi/arm-gnu-toolchain-13.2.Rel1-x86_64-arm-none-eabi/bin/../lib/gcc/arm-none-eabi/13.2.1/../../../../arm-none-eabi/lib/thumb/v7-a/nofp/libg.a(libc_a-findfp.o) (_fclose_r)
/home/mustafa/arm-gnu-toolchain-13.2.rel1-x86_64-arm-none-eabi/arm-gnu-toolchain-13.2.Rel1-x86_64-arm-none-eabi/bin/../lib/gcc/arm-none-eabi/13.2.1/../../../../arm-none-eabi/lib/thumb/v7-a/nofp/libg.a(libc_a-wsetup.o)
                              /home/mustafa/arm-gnu-toolchain-13.2.rel1-x86_64-arm-none-eabi/arm-gnu-toolchain-13.2.Rel1-x86_64-arm-none-eabi/bin/../lib/gcc/arm-none-eabi/13.2.1/../../../../arm-none-eabi/lib/thumb/v7-a/nofp/libg.a(libc_a-fvwrite.o) (__swsetup_r)
/home/mustafa/arm-gnu-toolchain-13.2.rel1-x86_64-arm-none-eabi/arm-gnu-toolchain-13.2.Rel1-x86_64-arm-none-eabi/bin/../lib/gcc/arm-none-eabi/13.2.1/../../../../arm-none-eabi/lib/thumb/v7-a/nofp/libg.a(libc_a-makebuf.o)
                              /home/mustafa/arm-gnu-toolchain-13.2.rel1-x86_64-arm-none-eabi/arm-gnu-toolchain-13.2.Rel1-x86_64-arm-none-eabi/bin/../lib/gcc/arm-none-eabi/13.2.1/../../../../arm-none-eabi/lib/thumb/v7-a/nofp/libg.a(libc_a-wsetup.o) (__smakebuf_r)
/home/mustafa/arm-gnu-toolchain-13.2.rel1-x86_64-arm-none-eabi/arm-gnu-toolchain-13.2.Rel1-x86_64-arm-none-eabi/bin/../lib/gcc/arm-none-eabi/13.2.1/../../../../arm-none-eabi/lib/thumb/v7-a/nofp/libg.a(libc_a-putc.o)
                              /home/mustafa/arm-gnu-toolchain-13.2.rel1-x86_64-arm-none-eabi/arm-gnu-toolchain-13.2.Rel1-x86_64-arm-none-eabi/bin/../lib/gcc/arm-none-eabi/13.2.1/../../../../arm-none-eabi/lib/thumb/v7-a/nofp/libg.a(libc_a-putchar.o) (_putc_r)
/home/mustafa/arm-gnu-toolchain-13.2.rel1-x86_64-arm-none-eabi/arm-gnu-toolchain-13.2.Rel1-x86_64-arm-none-eabi/bin/../lib/gcc/arm-none-eabi/13.2.1/../../../../arm-none-eabi/lib/thumb/v7-a/nofp/libg.a(libc_a-wcsnrtombs.o)
                              /home/mustafa/arm-gnu-toolchain-13.2.rel1-x86_64-arm-none-eabi/arm-gnu-toolchain-13.2.Rel1-x86_64-arm-none-eabi/bin/../lib/gcc/arm-none-eabi/13.2.1/../../../../arm-none-eabi/lib/thumb/v7-a/nofp/libg.a(libc_a-wcsrtombs.o) (_wcsnrtombs_r)
/home/mustafa/arm-gnu-toolchain-13.2.rel1-x86_64-arm-none-eabi/arm-gnu-toolchain-13.2.Rel1-x86_64-arm-none-eabi/bin/../lib/gcc/arm-none-eabi/13.2.1/../../../../arm-none-eabi/lib/thumb/v7-a/nofp/libg.a(libc_a-realloc.o)
                              /home/mustafa/arm-gnu-toolchain-13.2.rel1-x86_64-arm-none-eabi/arm-gnu-toolchain-13.2.Rel1-x86_64-arm-none-eabi/bin/../lib/gcc/arm-none-eabi/13.2.1/../../../../arm-none-eabi/lib/thumb/v7-a/nofp/libg.a(libc_a-svfiscanf.o) (realloc)
/home/mustafa/arm-gnu-toolchain-13.2.rel1-x86_64-arm-none-eabi/arm-gnu-toolchain-13.2.Rel1-x86_64-arm-none-eabi/bin/../lib/gcc/arm-none-eabi/13.2.1/../../../../arm-none-eabi/lib/thumb/v7-a/nofp/libg.a(libc_a-dtoa.o)
                              /home/mustafa/arm-gnu-toolchain-13.2.rel1-x86_64-arm-none-eabi/arm-gnu-toolchain-13.2.Rel1-x86_64-arm-none-eabi/bin/../lib/gcc/arm-none-eabi/13.2.1/../../../../arm-none-eabi/lib/thumb/v7-a/nofp/libg.a(libc_a-vfprintf.o) (_dtoa_r)
/home/mustafa/arm-gnu-toolchain-13.2.rel1-x86_64-arm-none-eabi/arm-gnu-toolchain-13.2.Rel1-x86_64-arm-none-eabi/bin/../lib/gcc/arm-none-eabi/13.2.1/../../../../arm-none-eabi/lib/thumb/v7-a/nofp/libg.a(libc_a-closer.o)
                              /home/mustafa/arm-gnu-toolchain-13.2.rel1-x86_64-arm-none-eabi/arm-gnu-toolchain-13.2.Rel1-x86_64-arm-none-eabi/bin/../lib/gcc/arm-none-eabi/13.2.1/../../../../arm-none-eabi/lib/thumb/v7-a/nofp/libg.a(libc_a-stdio.o) (_close_r)
/home/mustafa/arm-gnu-toolchain-13.2.rel1-x86_64-arm-none-eabi/arm-gnu-toolchain-13.2.Rel1-x86_64-arm-none-eabi/bin/../lib/gcc/arm-none-eabi/13.2.1/../../../../arm-none-eabi/lib/thumb/v7-a/nofp/libg.a(libc_a-reent.o)
                              /home/mustafa/arm-gnu-toolchain-13.2.rel1-x86_64-arm-none-eabi/arm-gnu-toolchain-13.2.Rel1-x86_64-arm-none-eabi/bin/../lib/gcc/arm-none-eabi/13.2.1/../../../../arm-none-eabi/lib/thumb/v7-a/nofp/libg.a(libc_a-sbrkr.o) (errno)
/home/mustafa/arm-gnu-toolchain-13.2.rel1-x86_64-arm-none-eabi/arm-gnu-toolchain-13.2.Rel1-x86_64-arm-none-eabi/bin/../lib/gcc/arm-none-eabi/13.2.1/../../../../arm-none-eabi/lib/thumb/v7-a/nofp/libg.a(libc_a-fflush.o)
                              /home/mustafa/arm-gnu-toolchain-13.2.rel1-x86_64-arm-none-eabi/arm-gnu-toolchain-13.2.Rel1-x86_64-arm-none-eabi/bin/../lib/gcc/arm-none-eabi/13.2.1/../../../../arm-none-eabi/lib/thumb/v7-a/nofp/libg.a(libc_a-fclose.o) (__sflush_r)
/home/mustafa/arm-gnu-toolchain-13.2.rel1-x86_64-arm-none-eabi/arm-gnu-toolchain-13.2.Rel1-x86_64-arm-none-eabi/bin/../lib/gcc/arm-none-eabi/13.2.1/../../../../arm-none-eabi/lib/thumb/v7-a/nofp/libg.a(libc_a-sccl.o)
                              /home/mustafa/arm-gnu-toolchain-13.2.rel1-x86_64-arm-none-eabi/arm-gnu-toolchain-13.2.Rel1-x86_64-arm-none-eabi/bin/../lib/gcc/arm-none-eabi/13.2.1/../../../../arm-none-eabi/lib/thumb/v7-a/nofp/libg.a(libc_a-svfiscanf.o) (__sccl)
/home/mustafa/arm-gnu-toolchain-13.2.rel1-x86_64-arm-none-eabi/arm-gnu-toolchain-13.2.Rel1-x86_64-arm-none-eabi/bin/../lib/gcc/arm-none-eabi/13.2.1/../../../../arm-none-eabi/lib/thumb/v7-a/nofp/libg.a(libm_a-s_frexp.o)
                              /home/mustafa/arm-gnu-toolchain-13.2.rel1-x86_64-arm-none-eabi/arm-gnu-toolchain-13.2.Rel1-x86_64-arm-none-eabi/bin/../lib/gcc/arm-none-eabi/13.2.1/../../../../arm-none-eabi/lib/thumb/v7-a/nofp/libg.a(libc_a-vfprintf.o) (frexp)
/home/mustafa/arm-gnu-toolchain-13.2.rel1-x86_64-arm-none-eabi/arm-gnu-toolchain-13.2.Rel1-x86_64-arm-none-eabi/bin/../lib/gcc/arm-none-eabi/13.2.1/../../../../arm-none-eabi/lib/thumb/v7-a/nofp/libg.a(libc_a-environ.o)
                              /home/mustafa/arm-gnu-toolchain-13.2.rel1-x86_64-arm-none-eabi/arm-gnu-toolchain-13.2.Rel1-x86_64-arm-none-eabi/bin/../lib/gcc/arm-none-eabi/13.2.1/../../../../arm-none-eabi/lib/thumb/v7-a/nofp/libg.a(libc_a-getenv_r.o) (environ)
/home/mustafa/arm-gnu-toolchain-13.2.rel1-x86_64-arm-none-eabi/arm-gnu-toolchain-13.2.Rel1-x86_64-arm-none-eabi/bin/../lib/gcc/arm-none-eabi/13.2.1/../../../../arm-none-eabi/lib/thumb/v7-a/nofp/libg.a(libc_a-envlock.o)
                              /home/mustafa/arm-gnu-toolchain-13.2.rel1-x86_64-arm-none-eabi/arm-gnu-toolchain-13.2.Rel1-x86_64-arm-none-eabi/bin/../lib/gcc/arm-none-eabi/13.2.1/../../../../arm-none-eabi/lib/thumb/v7-a/nofp/libg.a(libc_a-getenv_r.o) (__env_lock)
/home/mustafa/arm-gnu-toolchain-13.2.rel1-x86_64-arm-none-eabi/arm-gnu-toolchain-13.2.Rel1-x86_64-arm-none-eabi/bin/../lib/gcc/arm-none-eabi/13.2.1/../../../../arm-none-eabi/lib/thumb/v7-a/nofp/libg.a(libc_a-strncmp.o)
                              /home/mustafa/arm-gnu-toolchain-13.2.rel1-x86_64-arm-none-eabi/arm-gnu-toolchain-13.2.Rel1-x86_64-arm-none-eabi/bin/../lib/gcc/arm-none-eabi/13.2.1/../../../../arm-none-eabi/lib/thumb/v7-a/nofp/libg.a(libc_a-getenv_r.o) (strncmp)
/home/mustafa/arm-gnu-toolchain-13.2.rel1-x86_64-arm-none-eabi/arm-gnu-toolchain-13.2.Rel1-x86_64-arm-none-eabi/bin/../lib/gcc/arm-none-eabi/13.2.1/../../../../arm-none-eabi/lib/thumb/v7-a/nofp/libg.a(libc_a-strtoll.o)
                              /home/mustafa/arm-gnu-toolchain-13.2.rel1-x86_64-arm-none-eabi/arm-gnu-toolchain-13.2.Rel1-x86_64-arm-none-eabi/bin/../lib/gcc/arm-none-eabi/13.2.1/../../../../arm-none-eabi/lib/thumb/v7-a/nofp/libg.a(libc_a-svfiscanf.o) (_strtoll_r)
/home/mustafa/arm-gnu-toolchain-13.2.rel1-x86_64-arm-none-eabi/arm-gnu-toolchain-13.2.Rel1-x86_64-arm-none-eabi/bin/../lib/gcc/arm-none-eabi/13.2.1/../../../../arm-none-eabi/lib/thumb/v7-a/nofp/libg.a(libc_a-strtoull.o)
                              /home/mustafa/arm-gnu-toolchain-13.2.rel1-x86_64-arm-none-eabi/arm-gnu-toolchain-13.2.Rel1-x86_64-arm-none-eabi/bin/../lib/gcc/arm-none-eabi/13.2.1/../../../../arm-none-eabi/lib/thumb/v7-a/nofp/libg.a(libc_a-svfiscanf.o) (_strtoull_r)
/home/mustafa/arm-gnu-toolchain-13.2.rel1-x86_64-arm-none-eabi/arm-gnu-toolchain-13.2.Rel1-x86_64-arm-none-eabi/bin/../lib/gcc/arm-none-eabi/13.2.1/../../../../arm-none-eabi/lib/thumb/v7-a/nofp/libg.a(libc_a-fstatr.o)
                              /home/mustafa/arm-gnu-toolchain-13.2.rel1-x86_64-arm-none-eabi/arm-gnu-toolchain-13.2.Rel1-x86_64-arm-none-eabi/bin/../lib/gcc/arm-none-eabi/13.2.1/../../../../arm-none-eabi/lib/thumb/v7-a/nofp/libg.a(libc_a-makebuf.o) (_fstat_r)
/home/mustafa/arm-gnu-toolchain-13.2.rel1-x86_64-arm-none-eabi/arm-gnu-toolchain-13.2.Rel1-x86_64-arm-none-eabi/bin/../lib/gcc/arm-none-eabi/13.2.1/../../../../arm-none-eabi/lib/thumb/v7-a/nofp/libg.a(libc_a-isattyr.o)
                              /home/mustafa/arm-gnu-toolchain-13.2.rel1-x86_64-arm-none-eabi/arm-gnu-toolchain-13.2.Rel1-x86_64-arm-none-eabi/bin/../lib/gcc/arm-none-eabi/13.2.1/../../../../arm-none-eabi/lib/thumb/v7-a/nofp/libg.a(libc_a-makebuf.o) (_isatty_r)
/home/mustafa/arm-gnu-toolchain-13.2.rel1-x86_64-arm-none-eabi/arm-gnu-toolchain-13.2.Rel1-x86_64-arm-none-eabi/bin/../lib/gcc/arm-none-eabi/13.2.1/../../../../arm-none-eabi/lib/thumb/v7-a/nofp/libg.a(libc_a-lseekr.o)
                              /home/mustafa/arm-gnu-toolchain-13.2.rel1-x86_64-arm-none-eabi/arm-gnu-toolchain-13.2.Rel1-x86_64-arm-none-eabi/bin/../lib/gcc/arm-none-eabi/13.2.1/../../../../arm-none-eabi/lib/thumb/v7-a/nofp/libg.a(libc_a-stdio.o) (_lseek_r)
/home/mustafa/arm-gnu-toolchain-13.2.rel1-x86_64-arm-none-eabi/arm-gnu-toolchain-13.2.Rel1-x86_64-arm-none-eabi/bin/../lib/gcc/arm-none-eabi/13.2.1/../../../../arm-none-eabi/lib/thumb/v7-a/nofp/libg.a(libc_a-readr.o)
                              /home/mustafa/arm-gnu-toolchain-13.2.rel1-x86_64-arm-none-eabi/arm-gnu-toolchain-13.2.Rel1-x86_64-arm-none-eabi/bin/../lib/gcc/arm-none-eabi/13.2.1/../../../../arm-none-eabi/lib/thumb/v7-a/nofp/libg.a(libc_a-stdio.o) (_read_r)
/home/mustafa/arm-gnu-toolchain-13.2.rel1-x86_64-arm-none-eabi/arm-gnu-toolchain-13.2.Rel1-x86_64-arm-none-eabi/bin/../lib/gcc/arm-none-eabi/13.2.1/../../../../arm-none-eabi/lib/thumb/v7-a/nofp/libg.a(libc_a-iswspace.o)
                              /home/mustafa/arm-gnu-toolchain-13.2.rel1-x86_64-arm-none-eabi/arm-gnu-toolchain-13.2.Rel1-x86_64-arm-none-eabi/bin/../lib/gcc/arm-none-eabi/13.2.1/../../../../arm-none-eabi/lib/thumb/v7-a/nofp/libg.a(libc_a-svfiscanf.o) (iswspace)
/home/mustafa/arm-gnu-toolchain-13.2.rel1-x86_64-arm-none-eabi/arm-gnu-toolchain-13.2.Rel1-x86_64-arm-none-eabi/bin/../lib/gcc/arm-none-eabi/13.2.1/../../../../arm-none-eabi/lib/thumb/v7-a/nofp/libg.a(libc_a-iswspace_l.o)
                              /home/mustafa/arm-gnu-toolchain-13.2.rel1-x86_64-arm-none-eabi/arm-gnu-toolchain-13.2.Rel1-x86_64-arm-none-eabi/bin/../lib/gcc/arm-none-eabi/13.2.1/../../../../arm-none-eabi/lib/thumb/v7-a/nofp/libg.a(libc_a-iswspace.o) (iswspace_l)
/home/mustafa/arm-gnu-toolchain-13.2.rel1-x86_64-arm-none-eabi/arm-gnu-toolchain-13.2.Rel1-x86_64-arm-none-eabi/bin/../lib/gcc/arm-none-eabi/13.2.1/../../../../arm-none-eabi/lib/thumb/v7-a/nofp/libg.a(libc_a-fputwc.o)
                              /home/mustafa/arm-gnu-toolchain-13.2.rel1-x86_64-arm-none-eabi/arm-gnu-toolchain-13.2.Rel1-x86_64-arm-none-eabi/bin/../lib/gcc/arm-none-eabi/13.2.1/../../../../arm-none-eabi/lib/thumb/v7-a/nofp/libg.a(libc_a-vfiprintf.o) (_fputwc_r)
/home/mustafa/arm-gnu-toolchain-13.2.rel1-x86_64-arm-none-eabi/arm-gnu-toolchain-13.2.Rel1-x86_64-arm-none-eabi/bin/../lib/gcc/arm-none-eabi/13.2.1/../../../../arm-none-eabi/lib/thumb/v7-a/nofp/libg.a(libc_a-ungetc.o)
                              /home/mustafa/arm-gnu-toolchain-13.2.rel1-x86_64-arm-none-eabi/arm-gnu-toolchain-13.2.Rel1-x86_64-arm-none-eabi/bin/../lib/gcc/arm-none-eabi/13.2.1/../../../../arm-none-eabi/lib/thumb/v7-a/nofp/libg.a(libc_a-svfiscanf.o) (__submore)
/home/mustafa/arm-gnu-toolchain-13.2.rel1-x86_64-arm-none-eabi/arm-gnu-toolchain-13.2.Rel1-x86_64-arm-none-eabi/bin/../lib/gcc/arm-none-eabi/13.2.1/../../../../arm-none-eabi/lib/thumb/v7-a/nofp/libg.a(libc_a-categories.o)
                              /home/mustafa/arm-gnu-toolchain-13.2.rel1-x86_64-arm-none-eabi/arm-gnu-toolchain-13.2.Rel1-x86_64-arm-none-eabi/bin/../lib/gcc/arm-none-eabi/13.2.1/../../../../arm-none-eabi/lib/thumb/v7-a/nofp/libg.a(libc_a-iswspace_l.o) (category)
/home/mustafa/arm-gnu-toolchain-13.2.rel1-x86_64-arm-none-eabi/arm-gnu-toolchain-13.2.Rel1-x86_64-arm-none-eabi/bin/../lib/gcc/arm-none-eabi/13.2.1/../../../../arm-none-eabi/lib/thumb/v7-a/nofp/libg.a(libc_a-jp2uc.o)
                              /home/mustafa/arm-gnu-toolchain-13.2.rel1-x86_64-arm-none-eabi/arm-gnu-toolchain-13.2.Rel1-x86_64-arm-none-eabi/bin/../lib/gcc/arm-none-eabi/13.2.1/../../../../arm-none-eabi/lib/thumb/v7-a/nofp/libg.a(libc_a-iswspace_l.o) (_jp2uc_l)
/home/mustafa/arm-gnu-toolchain-13.2.rel1-x86_64-arm-none-eabi/arm-gnu-toolchain-13.2.Rel1-x86_64-arm-none-eabi/bin/../lib/gcc/arm-none-eabi/13.2.1/../../../../arm-none-eabi/lib/thumb/v7-a/nofp/libg.a(libc_a-wbuf.o)
                              /home/mustafa/arm-gnu-toolchain-13.2.rel1-x86_64-arm-none-eabi/arm-gnu-toolchain-13.2.Rel1-x86_64-arm-none-eabi/bin/../lib/gcc/arm-none-eabi/13.2.1/../../../../arm-none-eabi/lib/thumb/v7-a/nofp/libg.a(libc_a-putc.o) (__swbuf_r)
/home/mustafa/arm-gnu-toolchain-13.2.rel1-x86_64-arm-none-eabi/arm-gnu-toolchain-13.2.Rel1-x86_64-arm-none-eabi/bin/../lib/gcc/arm-none-eabi/13.2.1/../../../../arm-none-eabi/lib/thumb/v7-a/nofp/libg.a(libc_a-assert.o)
                              /home/mustafa/arm-gnu-toolchain-13.2.rel1-x86_64-arm-none-eabi/arm-gnu-toolchain-13.2.Rel1-x86_64-arm-none-eabi/bin/../lib/gcc/arm-none-eabi/13.2.1/../../../../arm-none-eabi/lib/thumb/v7-a/nofp/libg.a(libc_a-dtoa.o) (__assert_func)
/home/mustafa/arm-gnu-toolchain-13.2.rel1-x86_64-arm-none-eabi/arm-gnu-toolchain-13.2.Rel1-x86_64-arm-none-eabi/bin/../lib/gcc/arm-none-eabi/13.2.1/../../../../arm-none-eabi/lib/thumb/v7-a/nofp/libg.a(libc_a-mprec.o)
                              /home/mustafa/arm-gnu-toolchain-13.2.rel1-x86_64-arm-none-eabi/arm-gnu-toolchain-13.2.Rel1-x86_64-arm-none-eabi/bin/../lib/gcc/arm-none-eabi/13.2.1/../../../../arm-none-eabi/lib/thumb/v7-a/nofp/libg.a(libc_a-dtoa.o) (_Balloc)
/home/mustafa/arm-gnu-toolchain-13.2.rel1-x86_64-arm-none-eabi/arm-gnu-toolchain-13.2.Rel1-x86_64-arm-none-eabi/bin/../lib/gcc/arm-none-eabi/13.2.1/../../../../arm-none-eabi/lib/thumb/v7-a/nofp/libg.a(libc_a-callocr.o)
                              /home/mustafa/arm-gnu-toolchain-13.2.rel1-x86_64-arm-none-eabi/arm-gnu-toolchain-13.2.Rel1-x86_64-arm-none-eabi/bin/../lib/gcc/arm-none-eabi/13.2.1/../../../../arm-none-eabi/lib/thumb/v7-a/nofp/libg.a(libc_a-mprec.o) (_calloc_r)
/home/mustafa/arm-gnu-toolchain-13.2.rel1-x86_64-arm-none-eabi/arm-gnu-toolchain-13.2.Rel1-x86_64-arm-none-eabi/bin/../lib/gcc/arm-none-eabi/13.2.1/../../../../arm-none-eabi/lib/thumb/v7-a/nofp/libg.a(libc_a-fiprintf.o)
                              /home/mustafa/arm-gnu-toolchain-13.2.rel1-x86_64-arm-none-eabi/arm-gnu-toolchain-13.2.Rel1-x86_64-arm-none-eabi/bin/../lib/gcc/arm-none-eabi/13.2.1/../../../../arm-none-eabi/lib/thumb/v7-a/nofp/libg.a(libc_a-assert.o) (fiprintf)
/home/mustafa/arm-gnu-toolchain-13.2.rel1-x86_64-arm-none-eabi/arm-gnu-toolchain-13.2.Rel1-x86_64-arm-none-eabi/bin/../lib/gcc/arm-none-eabi/13.2.1/../../../../arm-none-eabi/lib/thumb/v7-a/nofp/libg.a(libc_a-abort.o)
                              /home/mustafa/arm-gnu-toolchain-13.2.rel1-x86_64-arm-none-eabi/arm-gnu-toolchain-13.2.Rel1-x86_64-arm-none-eabi/bin/../lib/gcc/arm-none-eabi/13.2.1/../../../../arm-none-eabi/lib/thumb/v7-a/nofp/libg.a(libc_a-assert.o) (abort)
/home/mustafa/arm-gnu-toolchain-13.2.rel1-x86_64-arm-none-eabi/arm-gnu-toolchain-13.2.Rel1-x86_64-arm-none-eabi/bin/../lib/gcc/arm-none-eabi/13.2.1/../../../../arm-none-eabi/lib/thumb/v7-a/nofp/libg.a(libc_a-signal.o)
                              /home/mustafa/arm-gnu-toolchain-13.2.rel1-x86_64-arm-none-eabi/arm-gnu-toolchain-13.2.Rel1-x86_64-arm-none-eabi/bin/../lib/gcc/arm-none-eabi/13.2.1/../../../../arm-none-eabi/lib/thumb/v7-a/nofp/libg.a(libc_a-abort.o) (raise)
/home/mustafa/arm-gnu-toolchain-13.2.rel1-x86_64-arm-none-eabi/arm-gnu-toolchain-13.2.Rel1-x86_64-arm-none-eabi/bin/../lib/gcc/arm-none-eabi/13.2.1/../../../../arm-none-eabi/lib/thumb/v7-a/nofp/libg.a(libc_a-signalr.o)
                              /home/mustafa/arm-gnu-toolchain-13.2.rel1-x86_64-arm-none-eabi/arm-gnu-toolchain-13.2.Rel1-x86_64-arm-none-eabi/bin/../lib/gcc/arm-none-eabi/13.2.1/../../../../arm-none-eabi/lib/thumb/v7-a/nofp/libg.a(libc_a-signal.o) (_kill_r)
/home/mustafa/arm-gnu-toolchain-13.2.rel1-x86_64-arm-none-eabi/arm-gnu-toolchain-13.2.Rel1-x86_64-arm-none-eabi/bin/../lib/gcc/arm-none-eabi/13.2.1/thumb/v7-a/nofp/libgcc.a(_arm_muldf3.o)
                              /home/mustafa/arm-gnu-toolchain-13.2.rel1-x86_64-arm-none-eabi/arm-gnu-toolchain-13.2.Rel1-x86_64-arm-none-eabi/bin/../lib/gcc/arm-none-eabi/13.2.1/../../../../arm-none-eabi/lib/thumb/v7-a/nofp/libg.a(libc_a-vfprintf.o) (__aeabi_dmul)
/home/mustafa/arm-gnu-toolchain-13.2.rel1-x86_64-arm-none-eabi/arm-gnu-toolchain-13.2.Rel1-x86_64-arm-none-eabi/bin/../lib/gcc/arm-none-eabi/13.2.1/thumb/v7-a/nofp/libgcc.a(_divsi3.o)
                              /home/mustafa/arm-gnu-toolchain-13.2.rel1-x86_64-arm-none-eabi/arm-gnu-toolchain-13.2.Rel1-x86_64-arm-none-eabi/bin/../lib/gcc/arm-none-eabi/13.2.1/../../../../arm-none-eabi/lib/thumb/v7-a/nofp/libg.a(libc_a-fvwrite.o) (__aeabi_idiv)
/home/mustafa/arm-gnu-toolchain-13.2.rel1-x86_64-arm-none-eabi/arm-gnu-toolchain-13.2.Rel1-x86_64-arm-none-eabi/bin/../lib/gcc/arm-none-eabi/13.2.1/thumb/v7-a/nofp/libgcc.a(_arm_addsubdf3.o)
                              /home/mustafa/arm-gnu-toolchain-13.2.rel1-x86_64-arm-none-eabi/arm-gnu-toolchain-13.2.Rel1-x86_64-arm-none-eabi/bin/../lib/gcc/arm-none-eabi/13.2.1/../../../../arm-none-eabi/lib/thumb/v7-a/nofp/libg.a(libc_a-vfprintf.o) (__aeabi_dsub)
/home/mustafa/arm-gnu-toolchain-13.2.rel1-x86_64-arm-none-eabi/arm-gnu-toolchain-13.2.Rel1-x86_64-arm-none-eabi/bin/../lib/gcc/arm-none-eabi/13.2.1/thumb/v7-a/nofp/libgcc.a(_arm_muldivdf3.o)
                              /home/mustafa/arm-gnu-toolchain-13.2.rel1-x86_64-arm-none-eabi/arm-gnu-toolchain-13.2.Rel1-x86_64-arm-none-eabi/bin/../lib/gcc/arm-none-eabi/13.2.1/../../../../arm-none-eabi/lib/thumb/v7-a/nofp/libg.a(libc_a-dtoa.o) (__aeabi_ddiv)
/home/mustafa/arm-gnu-toolchain-13.2.rel1-x86_64-arm-none-eabi/arm-gnu-toolchain-13.2.Rel1-x86_64-arm-none-eabi/bin/../lib/gcc/arm-none-eabi/13.2.1/thumb/v7-a/nofp/libgcc.a(_arm_cmpdf2.o)
                              /home/mustafa/arm-gnu-toolchain-13.2.rel1-x86_64-arm-none-eabi/arm-gnu-toolchain-13.2.Rel1-x86_64-arm-none-eabi/bin/../lib/gcc/arm-none-eabi/13.2.1/../../../../arm-none-eabi/lib/thumb/v7-a/nofp/libg.a(libc_a-vfprintf.o) (__aeabi_dcmpeq)
/home/mustafa/arm-gnu-toolchain-13.2.rel1-x86_64-arm-none-eabi/arm-gnu-toolchain-13.2.Rel1-x86_64-arm-none-eabi/bin/../lib/gcc/arm-none-eabi/13.2.1/thumb/v7-a/nofp/libgcc.a(_arm_unorddf2.o)
                              /home/mustafa/arm-gnu-toolchain-13.2.rel1-x86_64-arm-none-eabi/arm-gnu-toolchain-13.2.Rel1-x86_64-arm-none-eabi/bin/../lib/gcc/arm-none-eabi/13.2.1/../../../../arm-none-eabi/lib/thumb/v7-a/nofp/libg.a(libc_a-vfprintf.o) (__aeabi_dcmpun)
/home/mustafa/arm-gnu-toolchain-13.2.rel1-x86_64-arm-none-eabi/arm-gnu-toolchain-13.2.Rel1-x86_64-arm-none-eabi/bin/../lib/gcc/arm-none-eabi/13.2.1/thumb/v7-a/nofp/libgcc.a(_arm_fixdfsi.o)
                              /home/mustafa/arm-gnu-toolchain-13.2.rel1-x86_64-arm-none-eabi/arm-gnu-toolchain-13.2.Rel1-x86_64-arm-none-eabi/bin/../lib/gcc/arm-none-eabi/13.2.1/../../../../arm-none-eabi/lib/thumb/v7-a/nofp/libg.a(libc_a-vfprintf.o) (__aeabi_d2iz)
/home/mustafa/arm-gnu-toolchain-13.2.rel1-x86_64-arm-none-eabi/arm-gnu-toolchain-13.2.Rel1-x86_64-arm-none-eabi/bin/../lib/gcc/arm-none-eabi/13.2.1/thumb/v7-a/nofp/libgcc.a(_aeabi_ldivmod.o)
                              /home/mustafa/arm-gnu-toolchain-13.2.rel1-x86_64-arm-none-eabi/arm-gnu-toolchain-13.2.Rel1-x86_64-arm-none-eabi/bin/../lib/gcc/arm-none-eabi/13.2.1/../../../../arm-none-eabi/lib/thumb/v7-a/nofp/libg.a(libc_a-gmtime_r.o) (__aeabi_ldivmod)
/home/mustafa/arm-gnu-toolchain-13.2.rel1-x86_64-arm-none-eabi/arm-gnu-toolchain-13.2.Rel1-x86_64-arm-none-eabi/bin/../lib/gcc/arm-none-eabi/13.2.1/thumb/v7-a/nofp/libgcc.a(_aeabi_uldivmod.o)
                              /home/mustafa/arm-gnu-toolchain-13.2.rel1-x86_64-arm-none-eabi/arm-gnu-toolchain-13.2.Rel1-x86_64-arm-none-eabi/bin/../lib/gcc/arm-none-eabi/13.2.1/../../../../arm-none-eabi/lib/thumb/v7-a/nofp/libg.a(libc_a-strtoll.o) (__aeabi_uldivmod)
/home/mustafa/arm-gnu-toolchain-13.2.rel1-x86_64-arm-none-eabi/arm-gnu-toolchain-13.2.Rel1-x86_64-arm-none-eabi/bin/../lib/gcc/arm-none-eabi/13.2.1/thumb/v7-a/nofp/libgcc.a(_udivmoddi4.o)
                              /home/mustafa/arm-gnu-toolchain-13.2.rel1-x86_64-arm-none-eabi/arm-gnu-toolchain-13.2.Rel1-x86_64-arm-none-eabi/bin/../lib/gcc/arm-none-eabi/13.2.1/thumb/v7-a/nofp/libgcc.a(_aeabi_ldivmod.o) (__udivmoddi4)
/home/mustafa/arm-gnu-toolchain-13.2.rel1-x86_64-arm-none-eabi/arm-gnu-toolchain-13.2.Rel1-x86_64-arm-none-eabi/bin/../lib/gcc/arm-none-eabi/13.2.1/../../../../arm-none-eabi/lib/thumb/v7-a/nofp/libnosys.a(getpid.o)
                              /home/mustafa/arm-gnu-toolchain-13.2.rel1-x86_64-arm-none-eabi/arm-gnu-toolchain-13.2.Rel1-x86_64-arm-none-eabi/bin/../lib/gcc/arm-none-eabi/13.2.1/../../../../arm-none-eabi/lib/thumb/v7-a/nofp/libg.a(libc_a-signalr.o) (_getpid)
/home/mustafa/arm-gnu-toolchain-13.2.rel1-x86_64-arm-none-eabi/arm-gnu-toolchain-13.2.Rel1-x86_64-arm-none-eabi/bin/../lib/gcc/arm-none-eabi/13.2.1/../../../../arm-none-eabi/lib/thumb/v7-a/nofp/libnosys.a(kill.o)
                              /home/mustafa/arm-gnu-toolchain-13.2.rel1-x86_64-arm-none-eabi/arm-gnu-toolchain-13.2.Rel1-x86_64-arm-none-eabi/bin/../lib/gcc/arm-none-eabi/13.2.1/../../../../arm-none-eabi/lib/thumb/v7-a/nofp/libg.a(libc_a-signalr.o) (_kill)

Discarded input sections

 .gnu.warning._getpid
                0x00000000        0x0 /home/mustafa/arm-gnu-toolchain-13.2.rel1-x86_64-arm-none-eabi/arm-gnu-toolchain-13.2.Rel1-x86_64-arm-none-eabi/bin/../lib/gcc/arm-none-eabi/13.2.1/../../../../arm-none-eabi/lib/thumb/v7-a/nofp/libnosys.a(getpid.o)
 .gnu.warning._kill
                0x00000000        0x0 /home/mustafa/arm-gnu-toolchain-13.2.rel1-x86_64-arm-none-eabi/arm-gnu-toolchain-13.2.Rel1-x86_64-arm-none-eabi/bin/../lib/gcc/arm-none-eabi/13.2.1/../../../../arm-none-eabi/lib/thumb/v7-a/nofp/libnosys.a(kill.o)

Memory Configuration

Name             Origin             Length             Attributes
RAM              0x60000000         0x06400000         xrw
*default*        0x00000000         0xffffffff

Linker script and memory map

LOAD /home/mustafa/arm-gnu-toolchain-13.2.rel1-x86_64-arm-none-eabi/arm-gnu-toolchain-13.2.Rel1-x86_64-arm-none-eabi/bin/../lib/gcc/arm-none-eabi/13.2.1/../../../../arm-none-eabi/lib/thumb/v7-a/nofp/libc.a
LOAD obj/startup.o
LOAD obj/diskio.o
LOAD obj/ff.o
LOAD obj/ffsystem.o
LOAD obj/ffunicode.o
LOAD obj/gic.o
LOAD obj/interrupt.o
LOAD obj/kernel.o
LOAD obj/pl011.o
LOAD obj/pl031.o
LOAD obj/pl041.o
LOAD obj/pl050.o
LOAD obj/pl111.o
LOAD obj/pl181.o
LOAD obj/sp804.o
LOAD obj/syscall.o
LOAD obj/ugui.o
START GROUP
LOAD /home/mustafa/arm-gnu-toolchain-13.2.rel1-x86_64-arm-none-eabi/arm-gnu-toolchain-13.2.Rel1-x86_64-arm-none-eabi/bin/../lib/gcc/arm-none-eabi/13.2.1/thumb/v7-a/nofp/libgcc.a
LOAD /home/mustafa/arm-gnu-toolchain-13.2.rel1-x86_64-arm-none-eabi/arm-gnu-toolchain-13.2.Rel1-x86_64-arm-none-eabi/bin/../lib/gcc/arm-none-eabi/13.2.1/../../../../arm-none-eabi/lib/thumb/v7-a/nofp/libg.a
LOAD /home/mustafa/arm-gnu-toolchain-13.2.rel1-x86_64-arm-none-eabi/arm-gnu-toolchain-13.2.Rel1-x86_64-arm-none-eabi/bin/../lib/gcc/arm-none-eabi/13.2.1/../../../../arm-none-eabi/lib/thumb/v7-a/nofp/libc.a
END GROUP
START GROUP
LOAD /home/mustafa/arm-gnu-toolchain-13.2.rel1-x86_64-arm-none-eabi/arm-gnu-toolchain-13.2.Rel1-x86_64-arm-none-eabi/bin/../lib/gcc/arm-none-eabi/13.2.1/thumb/v7-a/nofp/libgcc.a
LOAD /home/mustafa/arm-gnu-toolchain-13.2.rel1-x86_64-arm-none-eabi/arm-gnu-toolchain-13.2.Rel1-x86_64-arm-none-eabi/bin/../lib/gcc/arm-none-eabi/13.2.1/../../../../arm-none-eabi/lib/thumb/v7-a/nofp/libc.a
LOAD /home/mustafa/arm-gnu-toolchain-13.2.rel1-x86_64-arm-none-eabi/arm-gnu-toolchain-13.2.Rel1-x86_64-arm-none-eabi/bin/../lib/gcc/arm-none-eabi/13.2.1/../../../../arm-none-eabi/lib/thumb/v7-a/nofp/libnosys.a
END GROUP
                0x00a00000                        heap_size = 0xa00000

.text           0x60000000    0x560ec
                0x60000000                        . = ALIGN (0x4)
 *(.isr_vector)
 .isr_vector    0x60000000       0x20 obj/startup.o
                0x60000000                _Reset
                0x60000020                        _start_text = .
 *(.text)
 .text          0x60000020       0x5c obj/startup.o
 .text          0x6000007c      0x2e8 obj/diskio.o
                0x6000007c                disk_status
                0x600000a4                disk_initialize
                0x600000cc                disk_read
                0x6000010c                disk_write
                0x6000014c                disk_ioctl
                0x600001bc                get_fattime
 .text          0x60000364     0x5220 obj/ff.o
                0x60003078                f_mount
                0x60003158                f_open
                0x60003664                f_read
                0x60003abc                f_write
                0x60003fd8                f_sync
                0x6000418c                f_close
                0x600041fc                f_lseek
                0x6000466c                f_opendir
                0x600047b0                f_closedir
                0x60004804                f_readdir
                0x600048dc                f_stat
                0x60004988                f_getfree
                0x60004c0c                f_truncate
                0x60004e2c                f_unlink
                0x60004ffc                f_mkdir
                0x60005278                f_rename
 .text          0x60005584        0x0 obj/ffsystem.o
 .text          0x60005584        0x0 obj/ffunicode.o
 .text          0x60005584      0xb84 obj/gic.o
                0x60005584                GIC_EnableDistributor
                0x600055b8                GIC_DisableDistributor
                0x600055ec                GIC_DistributorInfo
                0x60005610                GIC_DistributorImplementer
                0x60005634                GIC_SetTarget
                0x600056a4                GIC_SetICDICFR
                0x6000572c                GIC_GetTarget
                0x60005790                GIC_EnableInterface
                0x600057c4                GIC_DisableInterface
                0x600057f8                GIC_AcknowledgePending
                0x60005820                GIC_EndInterrupt
                0x60005854                GIC_EnableIRQ
                0x600058a4                GIC_DisableIRQ
                0x600058f4                GIC_SetPendingIRQ
                0x60005944                GIC_ClearPendingIRQ
                0x60005994                GIC_SetLevelModel
                0x60005aa8                GIC_SetPriority
                0x60005b10                GIC_GetPriority
                0x60005b70                GIC_InterfacePriorityMask
                0x60005ba4                GIC_SetBinaryPoint
                0x60005bd8                GIC_GetBinaryPoint
                0x60005c04                GIC_GetIRQStatus
                0x60005c98                GIC_SendSGI
                0x60005cf8                GIC_DistInit
                0x60006060                GIC_CPUInterfaceInit
                0x600060f0                GIC_Enable
 .text          0x60006108      0x154 obj/interrupt.o
                0x60006108                install_isr
                0x60006144                c_svc
                0x60006164                c_fiq
                0x60006188                c_irq
                0x60006218                enable_irq
                0x60006244                interrupt_init
 .text          0x6000625c      0x294 obj/kernel.o
                0x6000625c                main
 .text          0x600064f0       0x50 obj/pl011.o
                0x600064f0                uart_putc
 .text          0x60006540       0x24 obj/pl031.o
                0x60006540                read_rtc
 .text          0x60006564      0x45c obj/pl041.o
                0x60006564                aaci_delay
                0x600065b8                aaci_init
                0x60006614                aaci_config_channel
                0x60006648                aaci_enable_channel
                0x60006674                aaci_write_channel
                0x6000670c                aaci_disable_channel
                0x60006738                ac97_reset
                0x60006780                ac97_write
                0x600067e8                ac97_select
                0x60006810                ac97_set_volume
                0x600068a0                ac97_set_rate
                0x600068d0                aaci_test_sound
                0x600068fc                aaci_test_wavfile
 .text          0x600069c0       0xb8 obj/pl050.o
                0x600069c0                kb_handler
                0x60006a30                kb_init
 .text          0x60006a78      0x174 obj/pl111.o
                0x60006ad0                pdraw
                0x60006b10                clcd_init
 .text          0x60006bec      0x638 obj/pl181.o
                0x60006bec                sd_send_cmd
                0x60006c44                sd_handler
                0x60006e98                sd_init
                0x60006f94                sd_read
                0x6000705c                sd_write
                0x60007124                sd_test_read
 .text          0x60007224      0x140 obj/sp804.o
                0x60007224                timer_handler
                0x600072b0                timer_init
 .text          0x60007364      0x244 obj/syscall.o
                0x60007364                _exit
                0x6000737c                _write
                0x600073e4                _start
                0x600073f8                _fini
                0x6000741c                _sbrk
                0x600074e0                _close
                0x60007504                _read
                0x60007530                _lseek
                0x6000755c                _fstat
                0x60007584                _isatty
 .text          0x600075a8     0x82b4 obj/ugui.o
                0x600075a8                UG_Init
                0x60007788                UG_SelectGUI
                0x600077bc                UG_FontSelect
                0x60007824                UG_FillScreen
                0x60007898                UG_FillFrame
                0x60007a10                UG_FillRoundFrame
                0x60007e28                UG_DrawMesh
                0x60007f3c                UG_DrawFrame
                0x60008004                UG_DrawRoundFrame
                0x600082b8                UG_DrawPixel
                0x60008304                UG_DrawCircle
                0x60008644                UG_FillCircle
                0x60008934                UG_DrawArc
                0x60008d04                UG_DrawLine
                0x60009040                UG_PutString
                0x600091d0                UG_PutChar
                0x6000953c                UG_ConsolePutString
                0x60009810                UG_ConsoleSetArea
                0x600098ac                UG_ConsoleSetForecolor
                0x600098e0                UG_ConsoleSetBackcolor
                0x60009914                UG_SetForecolor
                0x60009948                UG_SetBackcolor
                0x6000997c                UG_GetXDim
                0x600099a4                UG_GetYDim
                0x600099cc                UG_FontSetHSpace
                0x60009a08                UG_FontSetVSpace
                0x60009a44                _UG_PutText
                0x6000a0cc                _UG_GetFreeObject
                0x6000a170                _UG_SearchObject
                0x6000a24c                _UG_DeleteObject
                0x6000a334                _UG_ProcessTouchData
                0x6000a5a8                _UG_UpdateObjects
                0x6000a6b0                _UG_HandleEvents
                0x6000a7d0                _UG_DrawObjectFrame
                0x6000abf0                UG_DriverRegister
                0x6000ac70                UG_DriverEnable
                0x6000ad1c                UG_DriverDisable
                0x6000adc8                UG_Update
                0x6000b090                UG_WaitForUpdate
                0x6000b0f4                UG_DrawBMP
                0x6000b2a0                UG_TouchUpdate
                0x6000b310                UG_WindowCreate
                0x6000b4f4                UG_WindowDelete
                0x6000b5d0                UG_WindowShow
                0x6000b64c                UG_WindowHide
                0x6000b7fc                UG_WindowResize
                0x6000bb18                UG_WindowAlert
                0x6000bb90                UG_WindowSetForeColor
                0x6000bc04                UG_WindowSetBackColor
                0x6000bc78                UG_WindowSetTitleTextColor
                0x6000bcec                UG_WindowSetTitleColor
                0x6000bd60                UG_WindowSetTitleInactiveTextColor
                0x6000bdd4                UG_WindowSetTitleInactiveColor
                0x6000be48                UG_WindowSetTitleText
                0x6000bebc                UG_WindowSetTitleTextFont
                0x6000bf84                UG_WindowSetTitleTextHSpace
                0x6000bffc                UG_WindowSetTitleTextVSpace
                0x6000c074                UG_WindowSetTitleTextAlignment
                0x6000c0ec                UG_WindowSetTitleHeight
                0x6000c17c                UG_WindowSetXStart
                0x6000c21c                UG_WindowSetYStart
                0x6000c2bc                UG_WindowSetXEnd
                0x6000c35c                UG_WindowSetYEnd
                0x6000c3fc                UG_WindowSetStyle
                0x6000c4f0                UG_WindowGetForeColor
                0x6000c548                UG_WindowGetBackColor
                0x6000c5a0                UG_WindowGetTitleTextColor
                0x6000c5f8                UG_WindowGetTitleColor
                0x6000c650                UG_WindowGetTitleInactiveTextColor
                0x6000c6a8                UG_WindowGetTitleInactiveColor
                0x6000c700                UG_WindowGetTitleText
                0x6000c758                UG_WindowGetTitleTextFont
                0x6000c7b0                UG_WindowGetTitleTextHSpace
                0x6000c808                UG_WindowGetTitleTextVSpace
                0x6000c860                UG_WindowGetTitleTextAlignment
                0x6000c8b8                UG_WindowGetTitleHeight
                0x6000c910                UG_WindowGetXStart
                0x6000c968                UG_WindowGetYStart
                0x6000c9c0                UG_WindowGetXEnd
                0x6000ca18                UG_WindowGetYEnd
                0x6000ca70                UG_WindowGetStyle
                0x6000cac8                UG_WindowGetArea
                0x6000cc30                UG_WindowGetInnerWidth
                0x6000ccd8                UG_WindowGetOuterWidth
                0x6000cd5c                UG_WindowGetInnerHeight
                0x6000ce30                UG_WindowGetOuterHeight
                0x6000ceb4                _UG_WindowDrawTitle
                0x6000d0f8                _UG_WindowUpdate
                0x6000d36c                _UG_WindowClear
                0x6000d4a4                UG_ButtonCreate
                0x6000d658                UG_ButtonDelete
                0x6000d694                UG_ButtonShow
                0x6000d720                UG_ButtonHide
                0x6000d7f0                UG_ButtonSetForeColor
                0x6000d888                UG_ButtonSetBackColor
                0x6000d920                UG_ButtonSetAlternateForeColor
                0x6000d9b8                UG_ButtonSetAlternateBackColor
                0x6000da50                UG_ButtonSetText
                0x6000dae8                UG_ButtonSetFont
                0x6000db80                UG_ButtonSetStyle
                0x6000dcf4                UG_ButtonGetForeColor
                0x6000dd70                UG_ButtonGetBackColor
                0x6000ddec                UG_ButtonGetAlternateForeColor
                0x6000de68                UG_ButtonGetAlternateBackColor
                0x6000dee4                UG_ButtonGetText
                0x6000df60                UG_ButtonGetFont
                0x6000dfdc                UG_ButtonGetStyle
                0x6000e058                _UG_ButtonUpdate
                0x6000e5e4                UG_TextboxCreate
                0x6000e784                UG_TextboxDelete
                0x6000e7c0                UG_TextboxShow
                0x6000e84c                UG_TextboxHide
                0x6000e8d8                UG_TextboxSetForeColor
                0x6000e970                UG_TextboxSetBackColor
                0x6000ea08                UG_TextboxSetText
                0x6000eaa0                UG_TextboxSetFont
                0x6000eb38                UG_TextboxSetHSpace
                0x6000ebd4                UG_TextboxSetVSpace
                0x6000ec70                UG_TextboxSetAlignment
                0x6000ed0c                UG_TextboxGetForeColor
                0x6000ed88                UG_TextboxGetBackColor
                0x6000ee04                UG_TextboxGetText
                0x6000ee80                UG_TextboxGetFont
                0x6000eefc                UG_TextboxGetHSpace
                0x6000ef78                UG_TextboxGetVSpace
                0x6000eff4                UG_TextboxGetAlignment
                0x6000f070                _UG_TextboxUpdate
                0x6000f2ec                UG_ImageCreate
                0x6000f43c                UG_ImageDelete
                0x6000f478                UG_ImageShow
                0x6000f504                UG_ImageHide
                0x6000f590                UG_ImageSetBMP
                0x6000f634                _UG_ImageUpdate
 *fill*         0x6000f85c        0x4 
 .text          0x6000f860      0x278 /home/mustafa/arm-gnu-toolchain-13.2.rel1-x86_64-arm-none-eabi/arm-gnu-toolchain-13.2.Rel1-x86_64-arm-none-eabi/bin/../lib/gcc/arm-none-eabi/13.2.1/thumb/v7-a/nofp/libgcc.a(_udivsi3.o)
                0x6000f860                __udivsi3
                0x6000f860                __aeabi_uidiv
                0x6000fabc                __aeabi_uidivmod
 .text          0x6000fad8        0x4 /home/mustafa/arm-gnu-toolchain-13.2.rel1-x86_64-arm-none-eabi/arm-gnu-toolchain-13.2.Rel1-x86_64-arm-none-eabi/bin/../lib/gcc/arm-none-eabi/13.2.1/thumb/v7-a/nofp/libgcc.a(_dvmd_tls.o)
                0x6000fad8                __aeabi_ldiv0
                0x6000fad8                __aeabi_idiv0
 .text          0x6000fadc        0x0 /home/mustafa/arm-gnu-toolchain-13.2.rel1-x86_64-arm-none-eabi/arm-gnu-toolchain-13.2.Rel1-x86_64-arm-none-eabi/bin/../lib/gcc/arm-none-eabi/13.2.1/../../../../arm-none-eabi/lib/thumb/v7-a/nofp/libg.a(libc_a-exit.o)
 .text          0x6000fadc        0x0 /home/mustafa/arm-gnu-toolchain-13.2.rel1-x86_64-arm-none-eabi/arm-gnu-toolchain-13.2.Rel1-x86_64-arm-none-eabi/bin/../lib/gcc/arm-none-eabi/13.2.1/../../../../arm-none-eabi/lib/thumb/v7-a/nofp/libg.a(libc_a-asctime.o)
 .text          0x6000fadc        0x0 /home/mustafa/arm-gnu-toolchain-13.2.rel1-x86_64-arm-none-eabi/arm-gnu-toolchain-13.2.Rel1-x86_64-arm-none-eabi/bin/../lib/gcc/arm-none-eabi/13.2.1/../../../../arm-none-eabi/lib/thumb/v7-a/nofp/libg.a(libc_a-asctime_r.o)
 .text          0x6000fadc        0x0 /home/mustafa/arm-gnu-toolchain-13.2.rel1-x86_64-arm-none-eabi/arm-gnu-toolchain-13.2.Rel1-x86_64-arm-none-eabi/bin/../lib/gcc/arm-none-eabi/13.2.1/../../../../arm-none-eabi/lib/thumb/v7-a/nofp/libg.a(libc_a-gmtime.o)
 .text          0x6000fadc        0x0 /home/mustafa/arm-gnu-toolchain-13.2.rel1-x86_64-arm-none-eabi/arm-gnu-toolchain-13.2.Rel1-x86_64-arm-none-eabi/bin/../lib/gcc/arm-none-eabi/13.2.1/../../../../arm-none-eabi/lib/thumb/v7-a/nofp/libg.a(libc_a-gmtime_r.o)
 .text          0x6000fadc        0x0 /home/mustafa/arm-gnu-toolchain-13.2.rel1-x86_64-arm-none-eabi/arm-gnu-toolchain-13.2.Rel1-x86_64-arm-none-eabi/bin/../lib/gcc/arm-none-eabi/13.2.1/../../../../arm-none-eabi/lib/thumb/v7-a/nofp/libg.a(libc_a-lcltime.o)
 .text          0x6000fadc        0x0 /home/mustafa/arm-gnu-toolchain-13.2.rel1-x86_64-arm-none-eabi/arm-gnu-toolchain-13.2.Rel1-x86_64-arm-none-eabi/bin/../lib/gcc/arm-none-eabi/13.2.1/../../../../arm-none-eabi/lib/thumb/v7-a/nofp/libg.a(libc_a-lcltime_r.o)
 .text          0x6000fadc        0x0 /home/mustafa/arm-gnu-toolchain-13.2.rel1-x86_64-arm-none-eabi/arm-gnu-toolchain-13.2.Rel1-x86_64-arm-none-eabi/bin/../lib/gcc/arm-none-eabi/13.2.1/../../../../arm-none-eabi/lib/thumb/v7-a/nofp/libg.a(libc_a-month_lengths.o)
 .text          0x6000fadc        0x0 /home/mustafa/arm-gnu-toolchain-13.2.rel1-x86_64-arm-none-eabi/arm-gnu-toolchain-13.2.Rel1-x86_64-arm-none-eabi/bin/../lib/gcc/arm-none-eabi/13.2.1/../../../../arm-none-eabi/lib/thumb/v7-a/nofp/libg.a(libc_a-siprintf.o)
 .text          0x6000fadc        0x0 /home/mustafa/arm-gnu-toolchain-13.2.rel1-x86_64-arm-none-eabi/arm-gnu-toolchain-13.2.Rel1-x86_64-arm-none-eabi/bin/../lib/gcc/arm-none-eabi/13.2.1/../../../../arm-none-eabi/lib/thumb/v7-a/nofp/libg.a(libc_a-errno.o)
 .text          0x6000fadc        0x0 /home/mustafa/arm-gnu-toolchain-13.2.rel1-x86_64-arm-none-eabi/arm-gnu-toolchain-13.2.Rel1-x86_64-arm-none-eabi/bin/../lib/gcc/arm-none-eabi/13.2.1/../../../../arm-none-eabi/lib/thumb/v7-a/nofp/libg.a(libc_a-svfiprintf.o)
 .text          0x6000fadc        0x0 /home/mustafa/arm-gnu-toolchain-13.2.rel1-x86_64-arm-none-eabi/arm-gnu-toolchain-13.2.Rel1-x86_64-arm-none-eabi/bin/../lib/gcc/arm-none-eabi/13.2.1/../../../../arm-none-eabi/lib/thumb/v7-a/nofp/libg.a(libc_a-tzcalc_limits.o)
 .text          0x6000fadc        0x0 /home/mustafa/arm-gnu-toolchain-13.2.rel1-x86_64-arm-none-eabi/arm-gnu-toolchain-13.2.Rel1-x86_64-arm-none-eabi/bin/../lib/gcc/arm-none-eabi/13.2.1/../../../../arm-none-eabi/lib/thumb/v7-a/nofp/libg.a(libc_a-tzlock.o)
 .text          0x6000fadc        0x0 /home/mustafa/arm-gnu-toolchain-13.2.rel1-x86_64-arm-none-eabi/arm-gnu-toolchain-13.2.Rel1-x86_64-arm-none-eabi/bin/../lib/gcc/arm-none-eabi/13.2.1/../../../../arm-none-eabi/lib/thumb/v7-a/nofp/libg.a(libc_a-malloc.o)
 .text          0x6000fadc        0x0 /home/mustafa/arm-gnu-toolchain-13.2.rel1-x86_64-arm-none-eabi/arm-gnu-toolchain-13.2.Rel1-x86_64-arm-none-eabi/bin/../lib/gcc/arm-none-eabi/13.2.1/../../../../arm-none-eabi/lib/thumb/v7-a/nofp/libg.a(libc_a-mallocr.o)
 .text          0x6000fadc        0x0 /home/mustafa/arm-gnu-toolchain-13.2.rel1-x86_64-arm-none-eabi/arm-gnu-toolchain-13.2.Rel1-x86_64-arm-none-eabi/bin/../lib/gcc/arm-none-eabi/13.2.1/../../../../arm-none-eabi/lib/thumb/v7-a/nofp/libg.a(libc_a-__call_atexit.o)
 .text          0x6000fadc        0x0 /home/mustafa/arm-gnu-toolchain-13.2.rel1-x86_64-arm-none-eabi/arm-gnu-toolchain-13.2.Rel1-x86_64-arm-none-eabi/bin/../lib/gcc/arm-none-eabi/13.2.1/../../../../arm-none-eabi/lib/thumb/v7-a/nofp/libg.a(libc_a-memcmp.o)
 .text          0x6000fadc        0x0 /home/mustafa/arm-gnu-toolchain-13.2.rel1-x86_64-arm-none-eabi/arm-gnu-toolchain-13.2.Rel1-x86_64-arm-none-eabi/bin/../lib/gcc/arm-none-eabi/13.2.1/../../../../arm-none-eabi/lib/thumb/v7-a/nofp/libg.a(libc_a-memmove.o)
 .text          0x6000fadc        0x0 /home/mustafa/arm-gnu-toolchain-13.2.rel1-x86_64-arm-none-eabi/arm-gnu-toolchain-13.2.Rel1-x86_64-arm-none-eabi/bin/../lib/gcc/arm-none-eabi/13.2.1/../../../../arm-none-eabi/lib/thumb/v7-a/nofp/libg.a(libc_a-memset.o)
 .text          0x6000fadc        0x0 /home/mustafa/arm-gnu-toolchain-13.2.rel1-x86_64-arm-none-eabi/arm-gnu-toolchain-13.2.Rel1-x86_64-arm-none-eabi/bin/../lib/gcc/arm-none-eabi/13.2.1/../../../../arm-none-eabi/lib/thumb/v7-a/nofp/libg.a(libc_a-wcrtomb.o)
 .text          0x6000fadc        0x0 /home/mustafa/arm-gnu-toolchain-13.2.rel1-x86_64-arm-none-eabi/arm-gnu-toolchain-13.2.Rel1-x86_64-arm-none-eabi/bin/../lib/gcc/arm-none-eabi/13.2.1/../../../../arm-none-eabi/lib/thumb/v7-a/nofp/libg.a(libc_a-tzset.o)
 .text          0x6000fadc        0x0 /home/mustafa/arm-gnu-toolchain-13.2.rel1-x86_64-arm-none-eabi/arm-gnu-toolchain-13.2.Rel1-x86_64-arm-none-eabi/bin/../lib/gcc/arm-none-eabi/13.2.1/../../../../arm-none-eabi/lib/thumb/v7-a/nofp/libg.a(libc_a-tzset_r.o)
 .text          0x6000fadc        0x0 /home/mustafa/arm-gnu-toolchain-13.2.rel1-x86_64-arm-none-eabi/arm-gnu-toolchain-13.2.Rel1-x86_64-arm-none-eabi/bin/../lib/gcc/arm-none-eabi/13.2.1/../../../../arm-none-eabi/lib/thumb/v7-a/nofp/libg.a(libc_a-tzvars.o)
 .text          0x6000fadc        0x0 /home/mustafa/arm-gnu-toolchain-13.2.rel1-x86_64-arm-none-eabi/arm-gnu-toolchain-13.2.Rel1-x86_64-arm-none-eabi/bin/../lib/gcc/arm-none-eabi/13.2.1/../../../../arm-none-eabi/lib/thumb/v7-a/nofp/libg.a(libc_a-fini.o)
 .text          0x6000fadc        0x0 /home/mustafa/arm-gnu-toolchain-13.2.rel1-x86_64-arm-none-eabi/arm-gnu-toolchain-13.2.Rel1-x86_64-arm-none-eabi/bin/../lib/gcc/arm-none-eabi/13.2.1/../../../../arm-none-eabi/lib/thumb/v7-a/nofp/libg.a(libc_a-lock.o)
 .text          0x6000fadc        0x0 /home/mustafa/arm-gnu-toolchain-13.2.rel1-x86_64-arm-none-eabi/arm-gnu-toolchain-13.2.Rel1-x86_64-arm-none-eabi/bin/../lib/gcc/arm-none-eabi/13.2.1/../../../../arm-none-eabi/lib/thumb/v7-a/nofp/libg.a(libc_a-locale.o)
 .text          0x6000fadc        0x0 /home/mustafa/arm-gnu-toolchain-13.2.rel1-x86_64-arm-none-eabi/arm-gnu-toolchain-13.2.Rel1-x86_64-arm-none-eabi/bin/../lib/gcc/arm-none-eabi/13.2.1/../../../../arm-none-eabi/lib/thumb/v7-a/nofp/libg.a(libc_a-localeconv.o)
 .text          0x6000fadc        0x0 /home/mustafa/arm-gnu-toolchain-13.2.rel1-x86_64-arm-none-eabi/arm-gnu-toolchain-13.2.Rel1-x86_64-arm-none-eabi/bin/../lib/gcc/arm-none-eabi/13.2.1/../../../../arm-none-eabi/lib/thumb/v7-a/nofp/libg.a(libc_a-sysconf.o)
 *fill*         0x6000fadc        0x4 
 .text          0x6000fae0      0x2e0 /home/mustafa/arm-gnu-toolchain-13.2.rel1-x86_64-arm-none-eabi/arm-gnu-toolchain-13.2.Rel1-x86_64-arm-none-eabi/bin/../lib/gcc/arm-none-eabi/13.2.1/../../../../arm-none-eabi/lib/thumb/v7-a/nofp/libg.a(libc_a-strcmp.o)
                0x6000fae0                strcmp
 .text          0x6000fdc0        0x0 /home/mustafa/arm-gnu-toolchain-13.2.rel1-x86_64-arm-none-eabi/arm-gnu-toolchain-13.2.Rel1-x86_64-arm-none-eabi/bin/../lib/gcc/arm-none-eabi/13.2.1/../../../../arm-none-eabi/lib/thumb/v7-a/nofp/libg.a(libc_a-printf.o)
 .text          0x6000fdc0        0x0 /home/mustafa/arm-gnu-toolchain-13.2.rel1-x86_64-arm-none-eabi/arm-gnu-toolchain-13.2.Rel1-x86_64-arm-none-eabi/bin/../lib/gcc/arm-none-eabi/13.2.1/../../../../arm-none-eabi/lib/thumb/v7-a/nofp/libg.a(libc_a-strcpy.o)
 .text          0x6000fdc0        0x0 /home/mustafa/arm-gnu-toolchain-13.2.rel1-x86_64-arm-none-eabi/arm-gnu-toolchain-13.2.Rel1-x86_64-arm-none-eabi/bin/../lib/gcc/arm-none-eabi/13.2.1/../../../../arm-none-eabi/lib/thumb/v7-a/nofp/libg.a(libc_a-putchar.o)
 .text          0x6000fdc0        0x0 /home/mustafa/arm-gnu-toolchain-13.2.rel1-x86_64-arm-none-eabi/arm-gnu-toolchain-13.2.Rel1-x86_64-arm-none-eabi/bin/../lib/gcc/arm-none-eabi/13.2.1/../../../../arm-none-eabi/lib/thumb/v7-a/nofp/libg.a(libc_a-puts.o)
 .text          0x6000fdc0        0x0 /home/mustafa/arm-gnu-toolchain-13.2.rel1-x86_64-arm-none-eabi/arm-gnu-toolchain-13.2.Rel1-x86_64-arm-none-eabi/bin/../lib/gcc/arm-none-eabi/13.2.1/../../../../arm-none-eabi/lib/thumb/v7-a/nofp/libg.a(libc_a-mlock.o)
 .text          0x6000fdc0        0x0 /home/mustafa/arm-gnu-toolchain-13.2.rel1-x86_64-arm-none-eabi/arm-gnu-toolchain-13.2.Rel1-x86_64-arm-none-eabi/bin/../lib/gcc/arm-none-eabi/13.2.1/../../../../arm-none-eabi/lib/thumb/v7-a/nofp/libg.a(libc_a-atexit.o)
 .text          0x6000fdc0        0x0 /home/mustafa/arm-gnu-toolchain-13.2.rel1-x86_64-arm-none-eabi/arm-gnu-toolchain-13.2.Rel1-x86_64-arm-none-eabi/bin/../lib/gcc/arm-none-eabi/13.2.1/../../../../arm-none-eabi/lib/thumb/v7-a/nofp/libg.a(libc_a-strchr.o)
 .text          0x6000fdc0        0x0 /home/mustafa/arm-gnu-toolchain-13.2.rel1-x86_64-arm-none-eabi/arm-gnu-toolchain-13.2.Rel1-x86_64-arm-none-eabi/bin/../lib/gcc/arm-none-eabi/13.2.1/../../../../arm-none-eabi/lib/thumb/v7-a/nofp/libg.a(libc_a-wcsrtombs.o)
 .text          0x6000fdc0        0x0 /home/mustafa/arm-gnu-toolchain-13.2.rel1-x86_64-arm-none-eabi/arm-gnu-toolchain-13.2.Rel1-x86_64-arm-none-eabi/bin/../lib/gcc/arm-none-eabi/13.2.1/../../../../arm-none-eabi/lib/thumb/v7-a/nofp/libg.a(libc_a-ctype_.o)
 .text          0x6000fdc0        0x0 /home/mustafa/arm-gnu-toolchain-13.2.rel1-x86_64-arm-none-eabi/arm-gnu-toolchain-13.2.Rel1-x86_64-arm-none-eabi/bin/../lib/gcc/arm-none-eabi/13.2.1/../../../../arm-none-eabi/lib/thumb/v7-a/nofp/libg.a(libc_a-impure.o)
 .text          0x6000fdc0        0x0 /home/mustafa/arm-gnu-toolchain-13.2.rel1-x86_64-arm-none-eabi/arm-gnu-toolchain-13.2.Rel1-x86_64-arm-none-eabi/bin/../lib/gcc/arm-none-eabi/13.2.1/../../../../arm-none-eabi/lib/thumb/v7-a/nofp/libg.a(libc_a-findfp.o)
 .text          0x6000fdc0       0xa0 /home/mustafa/arm-gnu-toolchain-13.2.rel1-x86_64-arm-none-eabi/arm-gnu-toolchain-13.2.Rel1-x86_64-arm-none-eabi/bin/../lib/gcc/arm-none-eabi/13.2.1/../../../../arm-none-eabi/lib/thumb/v7-a/nofp/libg.a(libc_a-memchr.o)
                0x6000fdc0                memchr
 *fill*         0x6000fe60       0x20 
 .text          0x6000fe80      0x420 /home/mustafa/arm-gnu-toolchain-13.2.rel1-x86_64-arm-none-eabi/arm-gnu-toolchain-13.2.Rel1-x86_64-arm-none-eabi/bin/../lib/gcc/arm-none-eabi/13.2.1/../../../../arm-none-eabi/lib/thumb/v7-a/nofp/libg.a(libc_a-memcpy.o)
                0x6000fe80                memcpy
 .text          0x600102a0        0x0 /home/mustafa/arm-gnu-toolchain-13.2.rel1-x86_64-arm-none-eabi/arm-gnu-toolchain-13.2.Rel1-x86_64-arm-none-eabi/bin/../lib/gcc/arm-none-eabi/13.2.1/../../../../arm-none-eabi/lib/thumb/v7-a/nofp/libg.a(libc_a-reallocr.o)
 .text          0x600102a0        0x0 /home/mustafa/arm-gnu-toolchain-13.2.rel1-x86_64-arm-none-eabi/arm-gnu-toolchain-13.2.Rel1-x86_64-arm-none-eabi/bin/../lib/gcc/arm-none-eabi/13.2.1/../../../../arm-none-eabi/lib/thumb/v7-a/nofp/libg.a(libc_a-strlcpy.o)
 .text          0x600102a0        0x0 /home/mustafa/arm-gnu-toolchain-13.2.rel1-x86_64-arm-none-eabi/arm-gnu-toolchain-13.2.Rel1-x86_64-arm-none-eabi/bin/../lib/gcc/arm-none-eabi/13.2.1/../../../../arm-none-eabi/lib/thumb/v7-a/nofp/libg.a(libc_a-freer.o)
 .text          0x600102a0        0x0 /home/mustafa/arm-gnu-toolchain-13.2.rel1-x86_64-arm-none-eabi/arm-gnu-toolchain-13.2.Rel1-x86_64-arm-none-eabi/bin/../lib/gcc/arm-none-eabi/13.2.1/../../../../arm-none-eabi/lib/thumb/v7-a/nofp/libg.a(libc_a-strtol.o)
 .text          0x600102a0        0x0 /home/mustafa/arm-gnu-toolchain-13.2.rel1-x86_64-arm-none-eabi/arm-gnu-toolchain-13.2.Rel1-x86_64-arm-none-eabi/bin/../lib/gcc/arm-none-eabi/13.2.1/../../../../arm-none-eabi/lib/thumb/v7-a/nofp/libg.a(libc_a-strtoul.o)
 .text          0x600102a0        0x0 /home/mustafa/arm-gnu-toolchain-13.2.rel1-x86_64-arm-none-eabi/arm-gnu-toolchain-13.2.Rel1-x86_64-arm-none-eabi/bin/../lib/gcc/arm-none-eabi/13.2.1/../../../../arm-none-eabi/lib/thumb/v7-a/nofp/libg.a(libc_a-strncasecmp.o)
 .text          0x600102a0        0x0 /home/mustafa/arm-gnu-toolchain-13.2.rel1-x86_64-arm-none-eabi/arm-gnu-toolchain-13.2.Rel1-x86_64-arm-none-eabi/bin/../lib/gcc/arm-none-eabi/13.2.1/../../../../arm-none-eabi/lib/thumb/v7-a/nofp/libg.a(libc_a-getenv_r.o)
 .text          0x600102a0        0x0 /home/mustafa/arm-gnu-toolchain-13.2.rel1-x86_64-arm-none-eabi/arm-gnu-toolchain-13.2.Rel1-x86_64-arm-none-eabi/bin/../lib/gcc/arm-none-eabi/13.2.1/../../../../arm-none-eabi/lib/thumb/v7-a/nofp/libg.a(libc_a-strncpy.o)
 .text          0x600102a0        0x0 /home/mustafa/arm-gnu-toolchain-13.2.rel1-x86_64-arm-none-eabi/arm-gnu-toolchain-13.2.Rel1-x86_64-arm-none-eabi/bin/../lib/gcc/arm-none-eabi/13.2.1/../../../../arm-none-eabi/lib/thumb/v7-a/nofp/libg.a(libc_a-gettzinfo.o)
 *fill*         0x600102a0       0x20 
 .text          0x600102c0       0xd8 /home/mustafa/arm-gnu-toolchain-13.2.rel1-x86_64-arm-none-eabi/arm-gnu-toolchain-13.2.Rel1-x86_64-arm-none-eabi/bin/../lib/gcc/arm-none-eabi/13.2.1/../../../../arm-none-eabi/lib/thumb/v7-a/nofp/libg.a(libc_a-strlen.o)
                0x600102c0                strlen
 .text          0x60010398        0x0 /home/mustafa/arm-gnu-toolchain-13.2.rel1-x86_64-arm-none-eabi/arm-gnu-toolchain-13.2.Rel1-x86_64-arm-none-eabi/bin/../lib/gcc/arm-none-eabi/13.2.1/../../../../arm-none-eabi/lib/thumb/v7-a/nofp/libg.a(libc_a-stdio.o)
 .text          0x60010398        0x0 /home/mustafa/arm-gnu-toolchain-13.2.rel1-x86_64-arm-none-eabi/arm-gnu-toolchain-13.2.Rel1-x86_64-arm-none-eabi/bin/../lib/gcc/arm-none-eabi/13.2.1/../../../../arm-none-eabi/lib/thumb/v7-a/nofp/libg.a(libc_a-wctomb_r.o)
 .text          0x60010398        0x0 /home/mustafa/arm-gnu-toolchain-13.2.rel1-x86_64-arm-none-eabi/arm-gnu-toolchain-13.2.Rel1-x86_64-arm-none-eabi/bin/../lib/gcc/arm-none-eabi/13.2.1/../../../../arm-none-eabi/lib/thumb/v7-a/nofp/libg.a(libc_a-sbrkr.o)
 .text          0x60010398        0x0 /home/mustafa/arm-gnu-toolchain-13.2.rel1-x86_64-arm-none-eabi/arm-gnu-toolchain-13.2.Rel1-x86_64-arm-none-eabi/bin/../lib/gcc/arm-none-eabi/13.2.1/../../../../arm-none-eabi/lib/thumb/v7-a/nofp/libg.a(libc_a-fvwrite.o)
 .text          0x60010398        0x0 /home/mustafa/arm-gnu-toolchain-13.2.rel1-x86_64-arm-none-eabi/arm-gnu-toolchain-13.2.Rel1-x86_64-arm-none-eabi/bin/../lib/gcc/arm-none-eabi/13.2.1/../../../../arm-none-eabi/lib/thumb/v7-a/nofp/libg.a(libc_a-fwalk.o)
 .text          0x60010398        0x0 /home/mustafa/arm-gnu-toolchain-13.2.rel1-x86_64-arm-none-eabi/arm-gnu-toolchain-13.2.Rel1-x86_64-arm-none-eabi/bin/../lib/gcc/arm-none-eabi/13.2.1/../../../../arm-none-eabi/lib/thumb/v7-a/nofp/libg.a(libc_a-writer.o)
 .text          0x60010398        0x0 /home/mustafa/arm-gnu-toolchain-13.2.rel1-x86_64-arm-none-eabi/arm-gnu-toolchain-13.2.Rel1-x86_64-arm-none-eabi/bin/../lib/gcc/arm-none-eabi/13.2.1/../../../../arm-none-eabi/lib/thumb/v7-a/nofp/libg.a(libc_a-siscanf.o)
 .text          0x60010398        0x0 /home/mustafa/arm-gnu-toolchain-13.2.rel1-x86_64-arm-none-eabi/arm-gnu-toolchain-13.2.Rel1-x86_64-arm-none-eabi/bin/../lib/gcc/arm-none-eabi/13.2.1/../../../../arm-none-eabi/lib/thumb/v7-a/nofp/libg.a(libc_a-svfiscanf.o)
 .text          0x60010398        0x0 /home/mustafa/arm-gnu-toolchain-13.2.rel1-x86_64-arm-none-eabi/arm-gnu-toolchain-13.2.Rel1-x86_64-arm-none-eabi/bin/../lib/gcc/arm-none-eabi/13.2.1/../../../../arm-none-eabi/lib/thumb/v7-a/nofp/libg.a(libc_a-vfprintf.o)
 .text          0x60010398        0x0 /home/mustafa/arm-gnu-toolchain-13.2.rel1-x86_64-arm-none-eabi/arm-gnu-toolchain-13.2.Rel1-x86_64-arm-none-eabi/bin/../lib/gcc/arm-none-eabi/13.2.1/../../../../arm-none-eabi/lib/thumb/v7-a/nofp/libg.a(libc_a-vfiprintf.o)
 .text          0x60010398        0x0 /home/mustafa/arm-gnu-toolchain-13.2.rel1-x86_64-arm-none-eabi/arm-gnu-toolchain-13.2.Rel1-x86_64-arm-none-eabi/bin/../lib/gcc/arm-none-eabi/13.2.1/../../../../arm-none-eabi/lib/thumb/v7-a/nofp/libg.a(libc_a-__atexit.o)
 .text          0x60010398        0x0 /home/mustafa/arm-gnu-toolchain-13.2.rel1-x86_64-arm-none-eabi/arm-gnu-toolchain-13.2.Rel1-x86_64-arm-none-eabi/bin/../lib/gcc/arm-none-eabi/13.2.1/../../../../arm-none-eabi/lib/thumb/v7-a/nofp/libg.a(libc_a-mbtowc_r.o)
 .text          0x60010398        0x0 /home/mustafa/arm-gnu-toolchain-13.2.rel1-x86_64-arm-none-eabi/arm-gnu-toolchain-13.2.Rel1-x86_64-arm-none-eabi/bin/../lib/gcc/arm-none-eabi/13.2.1/../../../../arm-none-eabi/lib/thumb/v7-a/nofp/libg.a(libc_a-mbrtowc.o)
 .text          0x60010398        0x0 /home/mustafa/arm-gnu-toolchain-13.2.rel1-x86_64-arm-none-eabi/arm-gnu-toolchain-13.2.Rel1-x86_64-arm-none-eabi/bin/../lib/gcc/arm-none-eabi/13.2.1/../../../../arm-none-eabi/lib/thumb/v7-a/nofp/libg.a(libc_a-strcasecmp.o)
 .text          0x60010398        0x0 /home/mustafa/arm-gnu-toolchain-13.2.rel1-x86_64-arm-none-eabi/arm-gnu-toolchain-13.2.Rel1-x86_64-arm-none-eabi/bin/../lib/gcc/arm-none-eabi/13.2.1/../../../../arm-none-eabi/lib/thumb/v7-a/nofp/libg.a(libc_a-strcat.o)
 .text          0x60010398        0x0 /home/mustafa/arm-gnu-toolchain-13.2.rel1-x86_64-arm-none-eabi/arm-gnu-toolchain-13.2.Rel1-x86_64-arm-none-eabi/bin/../lib/gcc/arm-none-eabi/13.2.1/../../../../arm-none-eabi/lib/thumb/v7-a/nofp/libg.a(libc_a-fclose.o)
 .text          0x60010398        0x0 /home/mustafa/arm-gnu-toolchain-13.2.rel1-x86_64-arm-none-eabi/arm-gnu-toolchain-13.2.Rel1-x86_64-arm-none-eabi/bin/../lib/gcc/arm-none-eabi/13.2.1/../../../../arm-none-eabi/lib/thumb/v7-a/nofp/libg.a(libc_a-wsetup.o)
 .text          0x60010398        0x0 /home/mustafa/arm-gnu-toolchain-13.2.rel1-x86_64-arm-none-eabi/arm-gnu-toolchain-13.2.Rel1-x86_64-arm-none-eabi/bin/../lib/gcc/arm-none-eabi/13.2.1/../../../../arm-none-eabi/lib/thumb/v7-a/nofp/libg.a(libc_a-makebuf.o)
 .text          0x60010398        0x0 /home/mustafa/arm-gnu-toolchain-13.2.rel1-x86_64-arm-none-eabi/arm-gnu-toolchain-13.2.Rel1-x86_64-arm-none-eabi/bin/../lib/gcc/arm-none-eabi/13.2.1/../../../../arm-none-eabi/lib/thumb/v7-a/nofp/libg.a(libc_a-putc.o)
 .text          0x60010398        0x0 /home/mustafa/arm-gnu-toolchain-13.2.rel1-x86_64-arm-none-eabi/arm-gnu-toolchain-13.2.Rel1-x86_64-arm-none-eabi/bin/../lib/gcc/arm-none-eabi/13.2.1/../../../../arm-none-eabi/lib/thumb/v7-a/nofp/libg.a(libc_a-wcsnrtombs.o)
 .text          0x60010398        0x0 /home/mustafa/arm-gnu-toolchain-13.2.rel1-x86_64-arm-none-eabi/arm-gnu-toolchain-13.2.Rel1-x86_64-arm-none-eabi/bin/../lib/gcc/arm-none-eabi/13.2.1/../../../../arm-none-eabi/lib/thumb/v7-a/nofp/libg.a(libc_a-realloc.o)
 .text          0x60010398        0x0 /home/mustafa/arm-gnu-toolchain-13.2.rel1-x86_64-arm-none-eabi/arm-gnu-toolchain-13.2.Rel1-x86_64-arm-none-eabi/bin/../lib/gcc/arm-none-eabi/13.2.1/../../../../arm-none-eabi/lib/thumb/v7-a/nofp/libg.a(libc_a-dtoa.o)
 .text          0x60010398        0x0 /home/mustafa/arm-gnu-toolchain-13.2.rel1-x86_64-arm-none-eabi/arm-gnu-toolchain-13.2.Rel1-x86_64-arm-none-eabi/bin/../lib/gcc/arm-none-eabi/13.2.1/../../../../arm-none-eabi/lib/thumb/v7-a/nofp/libg.a(libc_a-closer.o)
 .text          0x60010398        0x0 /home/mustafa/arm-gnu-toolchain-13.2.rel1-x86_64-arm-none-eabi/arm-gnu-toolchain-13.2.Rel1-x86_64-arm-none-eabi/bin/../lib/gcc/arm-none-eabi/13.2.1/../../../../arm-none-eabi/lib/thumb/v7-a/nofp/libg.a(libc_a-reent.o)
 .text          0x60010398        0x0 /home/mustafa/arm-gnu-toolchain-13.2.rel1-x86_64-arm-none-eabi/arm-gnu-toolchain-13.2.Rel1-x86_64-arm-none-eabi/bin/../lib/gcc/arm-none-eabi/13.2.1/../../../../arm-none-eabi/lib/thumb/v7-a/nofp/libg.a(libc_a-fflush.o)
 .text          0x60010398        0x0 /home/mustafa/arm-gnu-toolchain-13.2.rel1-x86_64-arm-none-eabi/arm-gnu-toolchain-13.2.Rel1-x86_64-arm-none-eabi/bin/../lib/gcc/arm-none-eabi/13.2.1/../../../../arm-none-eabi/lib/thumb/v7-a/nofp/libg.a(libc_a-sccl.o)
 .text          0x60010398        0x0 /home/mustafa/arm-gnu-toolchain-13.2.rel1-x86_64-arm-none-eabi/arm-gnu-toolchain-13.2.Rel1-x86_64-arm-none-eabi/bin/../lib/gcc/arm-none-eabi/13.2.1/../../../../arm-none-eabi/lib/thumb/v7-a/nofp/libg.a(libm_a-s_frexp.o)
 .text          0x60010398        0x0 /home/mustafa/arm-gnu-toolchain-13.2.rel1-x86_64-arm-none-eabi/arm-gnu-toolchain-13.2.Rel1-x86_64-arm-none-eabi/bin/../lib/gcc/arm-none-eabi/13.2.1/../../../../arm-none-eabi/lib/thumb/v7-a/nofp/libg.a(libc_a-environ.o)
 .text          0x60010398        0x0 /home/mustafa/arm-gnu-toolchain-13.2.rel1-x86_64-arm-none-eabi/arm-gnu-toolchain-13.2.Rel1-x86_64-arm-none-eabi/bin/../lib/gcc/arm-none-eabi/13.2.1/../../../../arm-none-eabi/lib/thumb/v7-a/nofp/libg.a(libc_a-envlock.o)
 .text          0x60010398        0x0 /home/mustafa/arm-gnu-toolchain-13.2.rel1-x86_64-arm-none-eabi/arm-gnu-toolchain-13.2.Rel1-x86_64-arm-none-eabi/bin/../lib/gcc/arm-none-eabi/13.2.1/../../../../arm-none-eabi/lib/thumb/v7-a/nofp/libg.a(libc_a-strncmp.o)
 .text          0x60010398        0x0 /home/mustafa/arm-gnu-toolchain-13.2.rel1-x86_64-arm-none-eabi/arm-gnu-toolchain-13.2.Rel1-x86_64-arm-none-eabi/bin/../lib/gcc/arm-none-eabi/13.2.1/../../../../arm-none-eabi/lib/thumb/v7-a/nofp/libg.a(libc_a-strtoll.o)
 .text          0x60010398        0x0 /home/mustafa/arm-gnu-toolchain-13.2.rel1-x86_64-arm-none-eabi/arm-gnu-toolchain-13.2.Rel1-x86_64-arm-none-eabi/bin/../lib/gcc/arm-none-eabi/13.2.1/../../../../arm-none-eabi/lib/thumb/v7-a/nofp/libg.a(libc_a-strtoull.o)
 .text          0x60010398        0x0 /home/mustafa/arm-gnu-toolchain-13.2.rel1-x86_64-arm-none-eabi/arm-gnu-toolchain-13.2.Rel1-x86_64-arm-none-eabi/bin/../lib/gcc/arm-none-eabi/13.2.1/../../../../arm-none-eabi/lib/thumb/v7-a/nofp/libg.a(libc_a-fstatr.o)
 .text          0x60010398        0x0 /home/mustafa/arm-gnu-toolchain-13.2.rel1-x86_64-arm-none-eabi/arm-gnu-toolchain-13.2.Rel1-x86_64-arm-none-eabi/bin/../lib/gcc/arm-none-eabi/13.2.1/../../../../arm-none-eabi/lib/thumb/v7-a/nofp/libg.a(libc_a-isattyr.o)
 .text          0x60010398        0x0 /home/mustafa/arm-gnu-toolchain-13.2.rel1-x86_64-arm-none-eabi/arm-gnu-toolchain-13.2.Rel1-x86_64-arm-none-eabi/bin/../lib/gcc/arm-none-eabi/13.2.1/../../../../arm-none-eabi/lib/thumb/v7-a/nofp/libg.a(libc_a-lseekr.o)
 .text          0x60010398        0x0 /home/mustafa/arm-gnu-toolchain-13.2.rel1-x86_64-arm-none-eabi/arm-gnu-toolchain-13.2.Rel1-x86_64-arm-none-eabi/bin/../lib/gcc/arm-none-eabi/13.2.1/../../../../arm-none-eabi/lib/thumb/v7-a/nofp/libg.a(libc_a-readr.o)
 .text          0x60010398        0x0 /home/mustafa/arm-gnu-toolchain-13.2.rel1-x86_64-arm-none-eabi/arm-gnu-toolchain-13.2.Rel1-x86_64-arm-none-eabi/bin/../lib/gcc/arm-none-eabi/13.2.1/../../../../arm-none-eabi/lib/thumb/v7-a/nofp/libg.a(libc_a-iswspace.o)
 .text          0x60010398        0x0 /home/mustafa/arm-gnu-toolchain-13.2.rel1-x86_64-arm-none-eabi/arm-gnu-toolchain-13.2.Rel1-x86_64-arm-none-eabi/bin/../lib/gcc/arm-none-eabi/13.2.1/../../../../arm-none-eabi/lib/thumb/v7-a/nofp/libg.a(libc_a-iswspace_l.o)
 .text          0x60010398        0x0 /home/mustafa/arm-gnu-toolchain-13.2.rel1-x86_64-arm-none-eabi/arm-gnu-toolchain-13.2.Rel1-x86_64-arm-none-eabi/bin/../lib/gcc/arm-none-eabi/13.2.1/../../../../arm-none-eabi/lib/thumb/v7-a/nofp/libg.a(libc_a-fputwc.o)
 .text          0x60010398        0x0 /home/mustafa/arm-gnu-toolchain-13.2.rel1-x86_64-arm-none-eabi/arm-gnu-toolchain-13.2.Rel1-x86_64-arm-none-eabi/bin/../lib/gcc/arm-none-eabi/13.2.1/../../../../arm-none-eabi/lib/thumb/v7-a/nofp/libg.a(libc_a-ungetc.o)
 .text          0x60010398        0x0 /home/mustafa/arm-gnu-toolchain-13.2.rel1-x86_64-arm-none-eabi/arm-gnu-toolchain-13.2.Rel1-x86_64-arm-none-eabi/bin/../lib/gcc/arm-none-eabi/13.2.1/../../../../arm-none-eabi/lib/thumb/v7-a/nofp/libg.a(libc_a-categories.o)
 .text          0x60010398        0x0 /home/mustafa/arm-gnu-toolchain-13.2.rel1-x86_64-arm-none-eabi/arm-gnu-toolchain-13.2.Rel1-x86_64-arm-none-eabi/bin/../lib/gcc/arm-none-eabi/13.2.1/../../../../arm-none-eabi/lib/thumb/v7-a/nofp/libg.a(libc_a-jp2uc.o)
 .text          0x60010398        0x0 /home/mustafa/arm-gnu-toolchain-13.2.rel1-x86_64-arm-none-eabi/arm-gnu-toolchain-13.2.Rel1-x86_64-arm-none-eabi/bin/../lib/gcc/arm-none-eabi/13.2.1/../../../../arm-none-eabi/lib/thumb/v7-a/nofp/libg.a(libc_a-wbuf.o)
 .text          0x60010398        0x0 /home/mustafa/arm-gnu-toolchain-13.2.rel1-x86_64-arm-none-eabi/arm-gnu-toolchain-13.2.Rel1-x86_64-arm-none-eabi/bin/../lib/gcc/arm-none-eabi/13.2.1/../../../../arm-none-eabi/lib/thumb/v7-a/nofp/libg.a(libc_a-assert.o)
 .text          0x60010398        0x0 /home/mustafa/arm-gnu-toolchain-13.2.rel1-x86_64-arm-none-eabi/arm-gnu-toolchain-13.2.Rel1-x86_64-arm-none-eabi/bin/../lib/gcc/arm-none-eabi/13.2.1/../../../../arm-none-eabi/lib/thumb/v7-a/nofp/libg.a(libc_a-mprec.o)
 .text          0x60010398        0x0 /home/mustafa/arm-gnu-toolchain-13.2.rel1-x86_64-arm-none-eabi/arm-gnu-toolchain-13.2.Rel1-x86_64-arm-none-eabi/bin/../lib/gcc/arm-none-eabi/13.2.1/../../../../arm-none-eabi/lib/thumb/v7-a/nofp/libg.a(libc_a-callocr.o)
 .text          0x60010398        0x0 /home/mustafa/arm-gnu-toolchain-13.2.rel1-x86_64-arm-none-eabi/arm-gnu-toolchain-13.2.Rel1-x86_64-arm-none-eabi/bin/../lib/gcc/arm-none-eabi/13.2.1/../../../../arm-none-eabi/lib/thumb/v7-a/nofp/libg.a(libc_a-fiprintf.o)
 .text          0x60010398        0x0 /home/mustafa/arm-gnu-toolchain-13.2.rel1-x86_64-arm-none-eabi/arm-gnu-toolchain-13.2.Rel1-x86_64-arm-none-eabi/bin/../lib/gcc/arm-none-eabi/13.2.1/../../../../arm-none-eabi/lib/thumb/v7-a/nofp/libg.a(libc_a-abort.o)
 .text          0x60010398        0x0 /home/mustafa/arm-gnu-toolchain-13.2.rel1-x86_64-arm-none-eabi/arm-gnu-toolchain-13.2.Rel1-x86_64-arm-none-eabi/bin/../lib/gcc/arm-none-eabi/13.2.1/../../../../arm-none-eabi/lib/thumb/v7-a/nofp/libg.a(libc_a-signal.o)
 .text          0x60010398        0x0 /home/mustafa/arm-gnu-toolchain-13.2.rel1-x86_64-arm-none-eabi/arm-gnu-toolchain-13.2.Rel1-x86_64-arm-none-eabi/bin/../lib/gcc/arm-none-eabi/13.2.1/../../../../arm-none-eabi/lib/thumb/v7-a/nofp/libg.a(libc_a-signalr.o)
 .text          0x60010398      0x254 /home/mustafa/arm-gnu-toolchain-13.2.rel1-x86_64-arm-none-eabi/arm-gnu-toolchain-13.2.Rel1-x86_64-arm-none-eabi/bin/../lib/gcc/arm-none-eabi/13.2.1/thumb/v7-a/nofp/libgcc.a(_arm_muldf3.o)
 *fill*         0x600105ec        0x4 
 .text          0x600105f0      0x2b0 /home/mustafa/arm-gnu-toolchain-13.2.rel1-x86_64-arm-none-eabi/arm-gnu-toolchain-13.2.Rel1-x86_64-arm-none-eabi/bin/../lib/gcc/arm-none-eabi/13.2.1/thumb/v7-a/nofp/libgcc.a(_divsi3.o)
                0x600105f0                __aeabi_idiv
                0x600105f0                __divsi3
                0x60010884                __aeabi_idivmod
 .text          0x600108a0      0x378 /home/mustafa/arm-gnu-toolchain-13.2.rel1-x86_64-arm-none-eabi/arm-gnu-toolchain-13.2.Rel1-x86_64-arm-none-eabi/bin/../lib/gcc/arm-none-eabi/13.2.1/thumb/v7-a/nofp/libgcc.a(_arm_addsubdf3.o)
                0x600108a0                __aeabi_drsub
                0x600108a8                __aeabi_dsub
                0x600108a8                __subdf3
                0x600108ac                __adddf3
                0x600108ac                __aeabi_dadd
                0x60010b24                __aeabi_ui2d
                0x60010b24                __floatunsidf
                0x60010b44                __floatsidf
                0x60010b44                __aeabi_i2d
                0x60010b68                __extendsfdf2
                0x60010b68                __aeabi_f2d
                0x60010bac                __aeabi_ul2d
                0x60010bac                __floatundidf
                0x60010bbc                __floatdidf
                0x60010bbc                __aeabi_l2d
 .text          0x60010c18      0x424 /home/mustafa/arm-gnu-toolchain-13.2.rel1-x86_64-arm-none-eabi/arm-gnu-toolchain-13.2.Rel1-x86_64-arm-none-eabi/bin/../lib/gcc/arm-none-eabi/13.2.1/thumb/v7-a/nofp/libgcc.a(_arm_muldivdf3.o)
                0x60010c18                __aeabi_dmul
                0x60010c18                __muldf3
                0x60010e6c                __aeabi_ddiv
                0x60010e6c                __divdf3
 .text          0x6001103c      0x110 /home/mustafa/arm-gnu-toolchain-13.2.rel1-x86_64-arm-none-eabi/arm-gnu-toolchain-13.2.Rel1-x86_64-arm-none-eabi/bin/../lib/gcc/arm-none-eabi/13.2.1/thumb/v7-a/nofp/libgcc.a(_arm_cmpdf2.o)
                0x6001103c                __gtdf2
                0x6001103c                __gedf2
                0x60011044                __ltdf2
                0x60011044                __ledf2
                0x6001104c                __cmpdf2
                0x6001104c                __eqdf2
                0x6001104c                __nedf2
                0x600110c8                __aeabi_cdrcmple
                0x600110d8                __aeabi_cdcmple
                0x600110d8                __aeabi_cdcmpeq
                0x600110e8                __aeabi_dcmpeq
                0x600110fc                __aeabi_dcmplt
                0x60011110                __aeabi_dcmple
                0x60011124                __aeabi_dcmpge
                0x60011138                __aeabi_dcmpgt
 .text          0x6001114c       0x2c /home/mustafa/arm-gnu-toolchain-13.2.rel1-x86_64-arm-none-eabi/arm-gnu-toolchain-13.2.Rel1-x86_64-arm-none-eabi/bin/../lib/gcc/arm-none-eabi/13.2.1/thumb/v7-a/nofp/libgcc.a(_arm_unorddf2.o)
                0x6001114c                __aeabi_dcmpun
                0x6001114c                __unorddf2
 .text          0x60011178       0x50 /home/mustafa/arm-gnu-toolchain-13.2.rel1-x86_64-arm-none-eabi/arm-gnu-toolchain-13.2.Rel1-x86_64-arm-none-eabi/bin/../lib/gcc/arm-none-eabi/13.2.1/thumb/v7-a/nofp/libgcc.a(_arm_fixdfsi.o)
                0x60011178                __fixdfsi
                0x60011178                __aeabi_d2iz
 .text          0x600111c8       0xa0 /home/mustafa/arm-gnu-toolchain-13.2.rel1-x86_64-arm-none-eabi/arm-gnu-toolchain-13.2.Rel1-x86_64-arm-none-eabi/bin/../lib/gcc/arm-none-eabi/13.2.1/thumb/v7-a/nofp/libgcc.a(_aeabi_ldivmod.o)
                0x600111c8                __aeabi_ldivmod
 .text          0x60011268       0x30 /home/mustafa/arm-gnu-toolchain-13.2.rel1-x86_64-arm-none-eabi/arm-gnu-toolchain-13.2.Rel1-x86_64-arm-none-eabi/bin/../lib/gcc/arm-none-eabi/13.2.1/thumb/v7-a/nofp/libgcc.a(_aeabi_uldivmod.o)
                0x60011268                __aeabi_uldivmod
 .text          0x60011298        0x0 /home/mustafa/arm-gnu-toolchain-13.2.rel1-x86_64-arm-none-eabi/arm-gnu-toolchain-13.2.Rel1-x86_64-arm-none-eabi/bin/../lib/gcc/arm-none-eabi/13.2.1/thumb/v7-a/nofp/libgcc.a(_udivmoddi4.o)
 .text          0x60011298        0x0 /home/mustafa/arm-gnu-toolchain-13.2.rel1-x86_64-arm-none-eabi/arm-gnu-toolchain-13.2.Rel1-x86_64-arm-none-eabi/bin/../lib/gcc/arm-none-eabi/13.2.1/../../../../arm-none-eabi/lib/thumb/v7-a/nofp/libnosys.a(getpid.o)
 .text          0x60011298        0x0 /home/mustafa/arm-gnu-toolchain-13.2.rel1-x86_64-arm-none-eabi/arm-gnu-toolchain-13.2.Rel1-x86_64-arm-none-eabi/bin/../lib/gcc/arm-none-eabi/13.2.1/../../../../arm-none-eabi/lib/thumb/v7-a/nofp/libnosys.a(kill.o)
 *(.text*)
 .text.exit     0x60011298       0x20 /home/mustafa/arm-gnu-toolchain-13.2.rel1-x86_64-arm-none-eabi/arm-gnu-toolchain-13.2.Rel1-x86_64-arm-none-eabi/bin/../lib/gcc/arm-none-eabi/13.2.1/../../../../arm-none-eabi/lib/thumb/v7-a/nofp/libg.a(libc_a-exit.o)
                0x60011298                exit
 .text.asctime  0x600112b8       0x10 /home/mustafa/arm-gnu-toolchain-13.2.rel1-x86_64-arm-none-eabi/arm-gnu-toolchain-13.2.Rel1-x86_64-arm-none-eabi/bin/../lib/gcc/arm-none-eabi/13.2.1/../../../../arm-none-eabi/lib/thumb/v7-a/nofp/libg.a(libc_a-asctime.o)
                0x600112b8                asctime
 .text.asctime_r
                0x600112c8       0x54 /home/mustafa/arm-gnu-toolchain-13.2.rel1-x86_64-arm-none-eabi/arm-gnu-toolchain-13.2.Rel1-x86_64-arm-none-eabi/bin/../lib/gcc/arm-none-eabi/13.2.1/../../../../arm-none-eabi/lib/thumb/v7-a/nofp/libg.a(libc_a-asctime_r.o)
                0x600112c8                asctime_r
 .text.gmtime   0x6001131c       0x10 /home/mustafa/arm-gnu-toolchain-13.2.rel1-x86_64-arm-none-eabi/arm-gnu-toolchain-13.2.Rel1-x86_64-arm-none-eabi/bin/../lib/gcc/arm-none-eabi/13.2.1/../../../../arm-none-eabi/lib/thumb/v7-a/nofp/libg.a(libc_a-gmtime.o)
                0x6001131c                gmtime
 .text.gmtime_r
                0x6001132c      0x1f4 /home/mustafa/arm-gnu-toolchain-13.2.rel1-x86_64-arm-none-eabi/arm-gnu-toolchain-13.2.Rel1-x86_64-arm-none-eabi/bin/../lib/gcc/arm-none-eabi/13.2.1/../../../../arm-none-eabi/lib/thumb/v7-a/nofp/libg.a(libc_a-gmtime_r.o)
                0x6001132c                gmtime_r
 .text.localtime
                0x60011520       0x10 /home/mustafa/arm-gnu-toolchain-13.2.rel1-x86_64-arm-none-eabi/arm-gnu-toolchain-13.2.Rel1-x86_64-arm-none-eabi/bin/../lib/gcc/arm-none-eabi/13.2.1/../../../../arm-none-eabi/lib/thumb/v7-a/nofp/libg.a(libc_a-lcltime.o)
                0x60011520                localtime
 .text.localtime_r
                0x60011530      0x278 /home/mustafa/arm-gnu-toolchain-13.2.rel1-x86_64-arm-none-eabi/arm-gnu-toolchain-13.2.Rel1-x86_64-arm-none-eabi/bin/../lib/gcc/arm-none-eabi/13.2.1/../../../../arm-none-eabi/lib/thumb/v7-a/nofp/libg.a(libc_a-lcltime_r.o)
                0x60011530                localtime_r
 .text._siprintf_r
                0x600117a8       0x3c /home/mustafa/arm-gnu-toolchain-13.2.rel1-x86_64-arm-none-eabi/arm-gnu-toolchain-13.2.Rel1-x86_64-arm-none-eabi/bin/../lib/gcc/arm-none-eabi/13.2.1/../../../../arm-none-eabi/lib/thumb/v7-a/nofp/libg.a(libc_a-siprintf.o)
                0x600117a8                _siprintf_r
 .text.siprintf
                0x600117e4       0x44 /home/mustafa/arm-gnu-toolchain-13.2.rel1-x86_64-arm-none-eabi/arm-gnu-toolchain-13.2.Rel1-x86_64-arm-none-eabi/bin/../lib/gcc/arm-none-eabi/13.2.1/../../../../arm-none-eabi/lib/thumb/v7-a/nofp/libg.a(libc_a-siprintf.o)
                0x600117e4                siprintf
 .text.__errno  0x60011828        0xc /home/mustafa/arm-gnu-toolchain-13.2.rel1-x86_64-arm-none-eabi/arm-gnu-toolchain-13.2.Rel1-x86_64-arm-none-eabi/bin/../lib/gcc/arm-none-eabi/13.2.1/../../../../arm-none-eabi/lib/thumb/v7-a/nofp/libg.a(libc_a-errno.o)
                0x60011828                __errno
 .text.__ssprint_r
                0x60011834      0x110 /home/mustafa/arm-gnu-toolchain-13.2.rel1-x86_64-arm-none-eabi/arm-gnu-toolchain-13.2.Rel1-x86_64-arm-none-eabi/bin/../lib/gcc/arm-none-eabi/13.2.1/../../../../arm-none-eabi/lib/thumb/v7-a/nofp/libg.a(libc_a-svfiprintf.o)
                0x60011834                __ssprint_r
 .text._svfiprintf_r
                0x60011944      0xdcc /home/mustafa/arm-gnu-toolchain-13.2.rel1-x86_64-arm-none-eabi/arm-gnu-toolchain-13.2.Rel1-x86_64-arm-none-eabi/bin/../lib/gcc/arm-none-eabi/13.2.1/../../../../arm-none-eabi/lib/thumb/v7-a/nofp/libg.a(libc_a-svfiprintf.o)
                0x60011944                _svfiprintf_r
 .text.__tzcalc_limits
                0x60012710      0x1e0 /home/mustafa/arm-gnu-toolchain-13.2.rel1-x86_64-arm-none-eabi/arm-gnu-toolchain-13.2.Rel1-x86_64-arm-none-eabi/bin/../lib/gcc/arm-none-eabi/13.2.1/../../../../arm-none-eabi/lib/thumb/v7-a/nofp/libg.a(libc_a-tzcalc_limits.o)
                0x60012710                __tzcalc_limits
 .text.__tz_lock
                0x600128f0        0xc /home/mustafa/arm-gnu-toolchain-13.2.rel1-x86_64-arm-none-eabi/arm-gnu-toolchain-13.2.Rel1-x86_64-arm-none-eabi/bin/../lib/gcc/arm-none-eabi/13.2.1/../../../../arm-none-eabi/lib/thumb/v7-a/nofp/libg.a(libc_a-tzlock.o)
                0x600128f0                __tz_lock
 .text.__tz_unlock
                0x600128fc        0xc /home/mustafa/arm-gnu-toolchain-13.2.rel1-x86_64-arm-none-eabi/arm-gnu-toolchain-13.2.Rel1-x86_64-arm-none-eabi/bin/../lib/gcc/arm-none-eabi/13.2.1/../../../../arm-none-eabi/lib/thumb/v7-a/nofp/libg.a(libc_a-tzlock.o)
                0x600128fc                __tz_unlock
 .text.malloc   0x60012908       0x10 /home/mustafa/arm-gnu-toolchain-13.2.rel1-x86_64-arm-none-eabi/arm-gnu-toolchain-13.2.Rel1-x86_64-arm-none-eabi/bin/../lib/gcc/arm-none-eabi/13.2.1/../../../../arm-none-eabi/lib/thumb/v7-a/nofp/libg.a(libc_a-malloc.o)
                0x60012908                malloc
 .text.free     0x60012918       0x10 /home/mustafa/arm-gnu-toolchain-13.2.rel1-x86_64-arm-none-eabi/arm-gnu-toolchain-13.2.Rel1-x86_64-arm-none-eabi/bin/../lib/gcc/arm-none-eabi/13.2.1/../../../../arm-none-eabi/lib/thumb/v7-a/nofp/libg.a(libc_a-malloc.o)
                0x60012918                free
 .text._malloc_r
                0x60012928      0x58c /home/mustafa/arm-gnu-toolchain-13.2.rel1-x86_64-arm-none-eabi/arm-gnu-toolchain-13.2.Rel1-x86_64-arm-none-eabi/bin/../lib/gcc/arm-none-eabi/13.2.1/../../../../arm-none-eabi/lib/thumb/v7-a/nofp/libg.a(libc_a-mallocr.o)
                0x60012928                _malloc_r
 .text.startup.register_fini
                0x60012eb4       0x18 /home/mustafa/arm-gnu-toolchain-13.2.rel1-x86_64-arm-none-eabi/arm-gnu-toolchain-13.2.Rel1-x86_64-arm-none-eabi/bin/../lib/gcc/arm-none-eabi/13.2.1/../../../../arm-none-eabi/lib/thumb/v7-a/nofp/libg.a(libc_a-__call_atexit.o)
 .text.__call_exitprocs
                0x60012ecc       0xd0 /home/mustafa/arm-gnu-toolchain-13.2.rel1-x86_64-arm-none-eabi/arm-gnu-toolchain-13.2.Rel1-x86_64-arm-none-eabi/bin/../lib/gcc/arm-none-eabi/13.2.1/../../../../arm-none-eabi/lib/thumb/v7-a/nofp/libg.a(libc_a-__call_atexit.o)
                0x60012ecc                __call_exitprocs
 .text.memcmp   0x60012f9c       0x5c /home/mustafa/arm-gnu-toolchain-13.2.rel1-x86_64-arm-none-eabi/arm-gnu-toolchain-13.2.Rel1-x86_64-arm-none-eabi/bin/../lib/gcc/arm-none-eabi/13.2.1/../../../../arm-none-eabi/lib/thumb/v7-a/nofp/libg.a(libc_a-memcmp.o)
                0x60012f9c                memcmp
 .text.memmove  0x60012ff8       0xf8 /home/mustafa/arm-gnu-toolchain-13.2.rel1-x86_64-arm-none-eabi/arm-gnu-toolchain-13.2.Rel1-x86_64-arm-none-eabi/bin/../lib/gcc/arm-none-eabi/13.2.1/../../../../arm-none-eabi/lib/thumb/v7-a/nofp/libg.a(libc_a-memmove.o)
                0x60012ff8                memmove
 .text.memset   0x600130f0       0xa8 /home/mustafa/arm-gnu-toolchain-13.2.rel1-x86_64-arm-none-eabi/arm-gnu-toolchain-13.2.Rel1-x86_64-arm-none-eabi/bin/../lib/gcc/arm-none-eabi/13.2.1/../../../../arm-none-eabi/lib/thumb/v7-a/nofp/libg.a(libc_a-memset.o)
                0x600130f0                memset
 .text._wcrtomb_r
                0x60013198       0x3c /home/mustafa/arm-gnu-toolchain-13.2.rel1-x86_64-arm-none-eabi/arm-gnu-toolchain-13.2.Rel1-x86_64-arm-none-eabi/bin/../lib/gcc/arm-none-eabi/13.2.1/../../../../arm-none-eabi/lib/thumb/v7-a/nofp/libg.a(libc_a-wcrtomb.o)
                0x60013198                _wcrtomb_r
 .text.wcrtomb  0x600131d4       0x4c /home/mustafa/arm-gnu-toolchain-13.2.rel1-x86_64-arm-none-eabi/arm-gnu-toolchain-13.2.Rel1-x86_64-arm-none-eabi/bin/../lib/gcc/arm-none-eabi/13.2.1/../../../../arm-none-eabi/lib/thumb/v7-a/nofp/libg.a(libc_a-wcrtomb.o)
                0x600131d4                wcrtomb
 .text._tzset_unlocked
                0x60013220       0x10 /home/mustafa/arm-gnu-toolchain-13.2.rel1-x86_64-arm-none-eabi/arm-gnu-toolchain-13.2.Rel1-x86_64-arm-none-eabi/bin/../lib/gcc/arm-none-eabi/13.2.1/../../../../arm-none-eabi/lib/thumb/v7-a/nofp/libg.a(libc_a-tzset.o)
                0x60013220                _tzset_unlocked
 .text.tzset    0x60013230       0x1c /home/mustafa/arm-gnu-toolchain-13.2.rel1-x86_64-arm-none-eabi/arm-gnu-toolchain-13.2.Rel1-x86_64-arm-none-eabi/bin/../lib/gcc/arm-none-eabi/13.2.1/../../../../arm-none-eabi/lib/thumb/v7-a/nofp/libg.a(libc_a-tzset.o)
                0x60013230                tzset
 .text._tzset_unlocked_r
                0x6001324c      0x4dc /home/mustafa/arm-gnu-toolchain-13.2.rel1-x86_64-arm-none-eabi/arm-gnu-toolchain-13.2.Rel1-x86_64-arm-none-eabi/bin/../lib/gcc/arm-none-eabi/13.2.1/../../../../arm-none-eabi/lib/thumb/v7-a/nofp/libg.a(libc_a-tzset_r.o)
                0x6001324c                _tzset_unlocked_r
 .text._tzset_r
                0x60013728       0x18 /home/mustafa/arm-gnu-toolchain-13.2.rel1-x86_64-arm-none-eabi/arm-gnu-toolchain-13.2.Rel1-x86_64-arm-none-eabi/bin/../lib/gcc/arm-none-eabi/13.2.1/../../../../arm-none-eabi/lib/thumb/v7-a/nofp/libg.a(libc_a-tzset_r.o)
                0x60013728                _tzset_r
 .text.__libc_fini_array
                0x60013740       0x2c /home/mustafa/arm-gnu-toolchain-13.2.rel1-x86_64-arm-none-eabi/arm-gnu-toolchain-13.2.Rel1-x86_64-arm-none-eabi/bin/../lib/gcc/arm-none-eabi/13.2.1/../../../../arm-none-eabi/lib/thumb/v7-a/nofp/libg.a(libc_a-fini.o)
                0x60013740                __libc_fini_array
 .text.__retarget_lock_init
                0x6001376c        0x4 /home/mustafa/arm-gnu-toolchain-13.2.rel1-x86_64-arm-none-eabi/arm-gnu-toolchain-13.2.Rel1-x86_64-arm-none-eabi/bin/../lib/gcc/arm-none-eabi/13.2.1/../../../../arm-none-eabi/lib/thumb/v7-a/nofp/libg.a(libc_a-lock.o)
                0x6001376c                __retarget_lock_init
 .text.__retarget_lock_init_recursive
                0x60013770        0x4 /home/mustafa/arm-gnu-toolchain-13.2.rel1-x86_64-arm-none-eabi/arm-gnu-toolchain-13.2.Rel1-x86_64-arm-none-eabi/bin/../lib/gcc/arm-none-eabi/13.2.1/../../../../arm-none-eabi/lib/thumb/v7-a/nofp/libg.a(libc_a-lock.o)
                0x60013770                __retarget_lock_init_recursive
 .text.__retarget_lock_close
                0x60013774        0x4 /home/mustafa/arm-gnu-toolchain-13.2.rel1-x86_64-arm-none-eabi/arm-gnu-toolchain-13.2.Rel1-x86_64-arm-none-eabi/bin/../lib/gcc/arm-none-eabi/13.2.1/../../../../arm-none-eabi/lib/thumb/v7-a/nofp/libg.a(libc_a-lock.o)
                0x60013774                __retarget_lock_close
 .text.__retarget_lock_close_recursive
                0x60013778        0x4 /home/mustafa/arm-gnu-toolchain-13.2.rel1-x86_64-arm-none-eabi/arm-gnu-toolchain-13.2.Rel1-x86_64-arm-none-eabi/bin/../lib/gcc/arm-none-eabi/13.2.1/../../../../arm-none-eabi/lib/thumb/v7-a/nofp/libg.a(libc_a-lock.o)
                0x60013778                __retarget_lock_close_recursive
 .text.__retarget_lock_acquire
                0x6001377c        0x4 /home/mustafa/arm-gnu-toolchain-13.2.rel1-x86_64-arm-none-eabi/arm-gnu-toolchain-13.2.Rel1-x86_64-arm-none-eabi/bin/../lib/gcc/arm-none-eabi/13.2.1/../../../../arm-none-eabi/lib/thumb/v7-a/nofp/libg.a(libc_a-lock.o)
                0x6001377c                __retarget_lock_acquire
 .text.__retarget_lock_acquire_recursive
                0x60013780        0x4 /home/mustafa/arm-gnu-toolchain-13.2.rel1-x86_64-arm-none-eabi/arm-gnu-toolchain-13.2.Rel1-x86_64-arm-none-eabi/bin/../lib/gcc/arm-none-eabi/13.2.1/../../../../arm-none-eabi/lib/thumb/v7-a/nofp/libg.a(libc_a-lock.o)
                0x60013780                __retarget_lock_acquire_recursive
 .text.__retarget_lock_try_acquire
                0x60013784        0x4 /home/mustafa/arm-gnu-toolchain-13.2.rel1-x86_64-arm-none-eabi/arm-gnu-toolchain-13.2.Rel1-x86_64-arm-none-eabi/bin/../lib/gcc/arm-none-eabi/13.2.1/../../../../arm-none-eabi/lib/thumb/v7-a/nofp/libg.a(libc_a-lock.o)
                0x60013784                __retarget_lock_try_acquire
 .text.__retarget_lock_try_acquire_recursive
                0x60013788        0x4 /home/mustafa/arm-gnu-toolchain-13.2.rel1-x86_64-arm-none-eabi/arm-gnu-toolchain-13.2.Rel1-x86_64-arm-none-eabi/bin/../lib/gcc/arm-none-eabi/13.2.1/../../../../arm-none-eabi/lib/thumb/v7-a/nofp/libg.a(libc_a-lock.o)
                0x60013788                __retarget_lock_try_acquire_recursive
 .text.__retarget_lock_release
                0x6001378c        0x4 /home/mustafa/arm-gnu-toolchain-13.2.rel1-x86_64-arm-none-eabi/arm-gnu-toolchain-13.2.Rel1-x86_64-arm-none-eabi/bin/../lib/gcc/arm-none-eabi/13.2.1/../../../../arm-none-eabi/lib/thumb/v7-a/nofp/libg.a(libc_a-lock.o)
                0x6001378c                __retarget_lock_release
 .text.__retarget_lock_release_recursive
                0x60013790        0x4 /home/mustafa/arm-gnu-toolchain-13.2.rel1-x86_64-arm-none-eabi/arm-gnu-toolchain-13.2.Rel1-x86_64-arm-none-eabi/bin/../lib/gcc/arm-none-eabi/13.2.1/../../../../arm-none-eabi/lib/thumb/v7-a/nofp/libg.a(libc_a-lock.o)
                0x60013790                __retarget_lock_release_recursive
 .text.currentlocale
                0x60013794       0x70 /home/mustafa/arm-gnu-toolchain-13.2.rel1-x86_64-arm-none-eabi/arm-gnu-toolchain-13.2.Rel1-x86_64-arm-none-eabi/bin/../lib/gcc/arm-none-eabi/13.2.1/../../../../arm-none-eabi/lib/thumb/v7-a/nofp/libg.a(libc_a-locale.o)
 .text.__loadlocale
                0x60013804      0x6c0 /home/mustafa/arm-gnu-toolchain-13.2.rel1-x86_64-arm-none-eabi/arm-gnu-toolchain-13.2.Rel1-x86_64-arm-none-eabi/bin/../lib/gcc/arm-none-eabi/13.2.1/../../../../arm-none-eabi/lib/thumb/v7-a/nofp/libg.a(libc_a-locale.o)
                0x60013804                __loadlocale
 .text.__get_locale_env
                0x60013ec4       0x5c /home/mustafa/arm-gnu-toolchain-13.2.rel1-x86_64-arm-none-eabi/arm-gnu-toolchain-13.2.Rel1-x86_64-arm-none-eabi/bin/../lib/gcc/arm-none-eabi/13.2.1/../../../../arm-none-eabi/lib/thumb/v7-a/nofp/libg.a(libc_a-locale.o)
                0x60013ec4                __get_locale_env
 .text._setlocale_r
                0x60013f20      0x244 /home/mustafa/arm-gnu-toolchain-13.2.rel1-x86_64-arm-none-eabi/arm-gnu-toolchain-13.2.Rel1-x86_64-arm-none-eabi/bin/../lib/gcc/arm-none-eabi/13.2.1/../../../../arm-none-eabi/lib/thumb/v7-a/nofp/libg.a(libc_a-locale.o)
                0x60013f20                _setlocale_r
 .text.__locale_mb_cur_max
                0x60014164       0x10 /home/mustafa/arm-gnu-toolchain-13.2.rel1-x86_64-arm-none-eabi/arm-gnu-toolchain-13.2.Rel1-x86_64-arm-none-eabi/bin/../lib/gcc/arm-none-eabi/13.2.1/../../../../arm-none-eabi/lib/thumb/v7-a/nofp/libg.a(libc_a-locale.o)
                0x60014164                __locale_mb_cur_max
 .text.setlocale
                0x60014174       0x14 /home/mustafa/arm-gnu-toolchain-13.2.rel1-x86_64-arm-none-eabi/arm-gnu-toolchain-13.2.Rel1-x86_64-arm-none-eabi/bin/../lib/gcc/arm-none-eabi/13.2.1/../../../../arm-none-eabi/lib/thumb/v7-a/nofp/libg.a(libc_a-locale.o)
                0x60014174                setlocale
 .text.__localeconv_l
                0x60014188        0x4 /home/mustafa/arm-gnu-toolchain-13.2.rel1-x86_64-arm-none-eabi/arm-gnu-toolchain-13.2.Rel1-x86_64-arm-none-eabi/bin/../lib/gcc/arm-none-eabi/13.2.1/../../../../arm-none-eabi/lib/thumb/v7-a/nofp/libg.a(libc_a-localeconv.o)
                0x60014188                __localeconv_l
 .text._localeconv_r
                0x6001418c        0x8 /home/mustafa/arm-gnu-toolchain-13.2.rel1-x86_64-arm-none-eabi/arm-gnu-toolchain-13.2.Rel1-x86_64-arm-none-eabi/bin/../lib/gcc/arm-none-eabi/13.2.1/../../../../arm-none-eabi/lib/thumb/v7-a/nofp/libg.a(libc_a-localeconv.o)
                0x6001418c                _localeconv_r
 .text.localeconv
                0x60014194        0x8 /home/mustafa/arm-gnu-toolchain-13.2.rel1-x86_64-arm-none-eabi/arm-gnu-toolchain-13.2.Rel1-x86_64-arm-none-eabi/bin/../lib/gcc/arm-none-eabi/13.2.1/../../../../arm-none-eabi/lib/thumb/v7-a/nofp/libg.a(libc_a-localeconv.o)
                0x60014194                localeconv
 .text.sysconf  0x6001419c       0x1c /home/mustafa/arm-gnu-toolchain-13.2.rel1-x86_64-arm-none-eabi/arm-gnu-toolchain-13.2.Rel1-x86_64-arm-none-eabi/bin/../lib/gcc/arm-none-eabi/13.2.1/../../../../arm-none-eabi/lib/thumb/v7-a/nofp/libg.a(libc_a-sysconf.o)
                0x6001419c                sysconf
 .text._printf_r
                0x600141b8       0x20 /home/mustafa/arm-gnu-toolchain-13.2.rel1-x86_64-arm-none-eabi/arm-gnu-toolchain-13.2.Rel1-x86_64-arm-none-eabi/bin/../lib/gcc/arm-none-eabi/13.2.1/../../../../arm-none-eabi/lib/thumb/v7-a/nofp/libg.a(libc_a-printf.o)
                0x600141b8                _printf_r
 .text.printf   0x600141d8       0x28 /home/mustafa/arm-gnu-toolchain-13.2.rel1-x86_64-arm-none-eabi/arm-gnu-toolchain-13.2.Rel1-x86_64-arm-none-eabi/bin/../lib/gcc/arm-none-eabi/13.2.1/../../../../arm-none-eabi/lib/thumb/v7-a/nofp/libg.a(libc_a-printf.o)
                0x600141d8                printf
 .text.strcpy   0x60014200       0xc4 /home/mustafa/arm-gnu-toolchain-13.2.rel1-x86_64-arm-none-eabi/arm-gnu-toolchain-13.2.Rel1-x86_64-arm-none-eabi/bin/../lib/gcc/arm-none-eabi/13.2.1/../../../../arm-none-eabi/lib/thumb/v7-a/nofp/libg.a(libc_a-strcpy.o)
                0x60014200                strcpy
 .text._putchar_r
                0x600142c4        0x8 /home/mustafa/arm-gnu-toolchain-13.2.rel1-x86_64-arm-none-eabi/arm-gnu-toolchain-13.2.Rel1-x86_64-arm-none-eabi/bin/../lib/gcc/arm-none-eabi/13.2.1/../../../../arm-none-eabi/lib/thumb/v7-a/nofp/libg.a(libc_a-putchar.o)
                0x600142c4                _putchar_r
 .text.putchar  0x600142cc       0x14 /home/mustafa/arm-gnu-toolchain-13.2.rel1-x86_64-arm-none-eabi/arm-gnu-toolchain-13.2.Rel1-x86_64-arm-none-eabi/bin/../lib/gcc/arm-none-eabi/13.2.1/../../../../arm-none-eabi/lib/thumb/v7-a/nofp/libg.a(libc_a-putchar.o)
                0x600142cc                putchar
 .text._puts_r  0x600142e0       0x9c /home/mustafa/arm-gnu-toolchain-13.2.rel1-x86_64-arm-none-eabi/arm-gnu-toolchain-13.2.Rel1-x86_64-arm-none-eabi/bin/../lib/gcc/arm-none-eabi/13.2.1/../../../../arm-none-eabi/lib/thumb/v7-a/nofp/libg.a(libc_a-puts.o)
                0x600142e0                _puts_r
 .text.puts     0x6001437c       0x10 /home/mustafa/arm-gnu-toolchain-13.2.rel1-x86_64-arm-none-eabi/arm-gnu-toolchain-13.2.Rel1-x86_64-arm-none-eabi/bin/../lib/gcc/arm-none-eabi/13.2.1/../../../../arm-none-eabi/lib/thumb/v7-a/nofp/libg.a(libc_a-puts.o)
                0x6001437c                puts
 .text.__malloc_lock
                0x6001438c        0xc /home/mustafa/arm-gnu-toolchain-13.2.rel1-x86_64-arm-none-eabi/arm-gnu-toolchain-13.2.Rel1-x86_64-arm-none-eabi/bin/../lib/gcc/arm-none-eabi/13.2.1/../../../../arm-none-eabi/lib/thumb/v7-a/nofp/libg.a(libc_a-mlock.o)
                0x6001438c                __malloc_lock
 .text.__malloc_unlock
                0x60014398        0xc /home/mustafa/arm-gnu-toolchain-13.2.rel1-x86_64-arm-none-eabi/arm-gnu-toolchain-13.2.Rel1-x86_64-arm-none-eabi/bin/../lib/gcc/arm-none-eabi/13.2.1/../../../../arm-none-eabi/lib/thumb/v7-a/nofp/libg.a(libc_a-mlock.o)
                0x60014398                __malloc_unlock
 .text.atexit   0x600143a4        0xc /home/mustafa/arm-gnu-toolchain-13.2.rel1-x86_64-arm-none-eabi/arm-gnu-toolchain-13.2.Rel1-x86_64-arm-none-eabi/bin/../lib/gcc/arm-none-eabi/13.2.1/../../../../arm-none-eabi/lib/thumb/v7-a/nofp/libg.a(libc_a-atexit.o)
                0x600143a4                atexit
 .text.strchr   0x600143b0       0xd0 /home/mustafa/arm-gnu-toolchain-13.2.rel1-x86_64-arm-none-eabi/arm-gnu-toolchain-13.2.Rel1-x86_64-arm-none-eabi/bin/../lib/gcc/arm-none-eabi/13.2.1/../../../../arm-none-eabi/lib/thumb/v7-a/nofp/libg.a(libc_a-strchr.o)
                0x600143b0                strchr
 .text._wcsrtombs_r
                0x60014480       0x1c /home/mustafa/arm-gnu-toolchain-13.2.rel1-x86_64-arm-none-eabi/arm-gnu-toolchain-13.2.Rel1-x86_64-arm-none-eabi/bin/../lib/gcc/arm-none-eabi/13.2.1/../../../../arm-none-eabi/lib/thumb/v7-a/nofp/libg.a(libc_a-wcsrtombs.o)
                0x60014480                _wcsrtombs_r
 .text.wcsrtombs
                0x6001449c       0x28 /home/mustafa/arm-gnu-toolchain-13.2.rel1-x86_64-arm-none-eabi/arm-gnu-toolchain-13.2.Rel1-x86_64-arm-none-eabi/bin/../lib/gcc/arm-none-eabi/13.2.1/../../../../arm-none-eabi/lib/thumb/v7-a/nofp/libg.a(libc_a-wcsrtombs.o)
                0x6001449c                wcsrtombs
 .text.__set_ctype
                0x600144c4       0x10 /home/mustafa/arm-gnu-toolchain-13.2.rel1-x86_64-arm-none-eabi/arm-gnu-toolchain-13.2.Rel1-x86_64-arm-none-eabi/bin/../lib/gcc/arm-none-eabi/13.2.1/../../../../arm-none-eabi/lib/thumb/v7-a/nofp/libg.a(libc_a-ctype_.o)
                0x600144c4                __set_ctype
 .text.stdio_exit_handler
                0x600144d4       0x1c /home/mustafa/arm-gnu-toolchain-13.2.rel1-x86_64-arm-none-eabi/arm-gnu-toolchain-13.2.Rel1-x86_64-arm-none-eabi/bin/../lib/gcc/arm-none-eabi/13.2.1/../../../../arm-none-eabi/lib/thumb/v7-a/nofp/libg.a(libc_a-findfp.o)
 .text.cleanup_stdio
                0x600144f0       0x40 /home/mustafa/arm-gnu-toolchain-13.2.rel1-x86_64-arm-none-eabi/arm-gnu-toolchain-13.2.Rel1-x86_64-arm-none-eabi/bin/../lib/gcc/arm-none-eabi/13.2.1/../../../../arm-none-eabi/lib/thumb/v7-a/nofp/libg.a(libc_a-findfp.o)
 .text.__fp_lock
                0x60014530       0x1c /home/mustafa/arm-gnu-toolchain-13.2.rel1-x86_64-arm-none-eabi/arm-gnu-toolchain-13.2.Rel1-x86_64-arm-none-eabi/bin/../lib/gcc/arm-none-eabi/13.2.1/../../../../arm-none-eabi/lib/thumb/v7-a/nofp/libg.a(libc_a-findfp.o)
 .text.__fp_unlock
                0x6001454c       0x1c /home/mustafa/arm-gnu-toolchain-13.2.rel1-x86_64-arm-none-eabi/arm-gnu-toolchain-13.2.Rel1-x86_64-arm-none-eabi/bin/../lib/gcc/arm-none-eabi/13.2.1/../../../../arm-none-eabi/lib/thumb/v7-a/nofp/libg.a(libc_a-findfp.o)
 .text.global_stdio_init.part.0
                0x60014568       0xf8 /home/mustafa/arm-gnu-toolchain-13.2.rel1-x86_64-arm-none-eabi/arm-gnu-toolchain-13.2.Rel1-x86_64-arm-none-eabi/bin/../lib/gcc/arm-none-eabi/13.2.1/../../../../arm-none-eabi/lib/thumb/v7-a/nofp/libg.a(libc_a-findfp.o)
 .text.__sfp    0x60014660       0xd0 /home/mustafa/arm-gnu-toolchain-13.2.rel1-x86_64-arm-none-eabi/arm-gnu-toolchain-13.2.Rel1-x86_64-arm-none-eabi/bin/../lib/gcc/arm-none-eabi/13.2.1/../../../../arm-none-eabi/lib/thumb/v7-a/nofp/libg.a(libc_a-findfp.o)
                0x60014660                __sfp
 .text.__sinit  0x60014730       0x50 /home/mustafa/arm-gnu-toolchain-13.2.rel1-x86_64-arm-none-eabi/arm-gnu-toolchain-13.2.Rel1-x86_64-arm-none-eabi/bin/../lib/gcc/arm-none-eabi/13.2.1/../../../../arm-none-eabi/lib/thumb/v7-a/nofp/libg.a(libc_a-findfp.o)
                0x60014730                __sinit
 .text.__sfp_lock_acquire
                0x60014780        0xc /home/mustafa/arm-gnu-toolchain-13.2.rel1-x86_64-arm-none-eabi/arm-gnu-toolchain-13.2.Rel1-x86_64-arm-none-eabi/bin/../lib/gcc/arm-none-eabi/13.2.1/../../../../arm-none-eabi/lib/thumb/v7-a/nofp/libg.a(libc_a-findfp.o)
                0x60014780                __sfp_lock_acquire
 .text.__sfp_lock_release
                0x6001478c        0xc /home/mustafa/arm-gnu-toolchain-13.2.rel1-x86_64-arm-none-eabi/arm-gnu-toolchain-13.2.Rel1-x86_64-arm-none-eabi/bin/../lib/gcc/arm-none-eabi/13.2.1/../../../../arm-none-eabi/lib/thumb/v7-a/nofp/libg.a(libc_a-findfp.o)
                0x6001478c                __sfp_lock_release
 .text.__fp_lock_all
                0x60014798       0x28 /home/mustafa/arm-gnu-toolchain-13.2.rel1-x86_64-arm-none-eabi/arm-gnu-toolchain-13.2.Rel1-x86_64-arm-none-eabi/bin/../lib/gcc/arm-none-eabi/13.2.1/../../../../arm-none-eabi/lib/thumb/v7-a/nofp/libg.a(libc_a-findfp.o)
                0x60014798                __fp_lock_all
 .text.__fp_unlock_all
                0x600147c0       0x28 /home/mustafa/arm-gnu-toolchain-13.2.rel1-x86_64-arm-none-eabi/arm-gnu-toolchain-13.2.Rel1-x86_64-arm-none-eabi/bin/../lib/gcc/arm-none-eabi/13.2.1/../../../../arm-none-eabi/lib/thumb/v7-a/nofp/libg.a(libc_a-findfp.o)
                0x600147c0                __fp_unlock_all
 .text._realloc_r
                0x600147e8      0x37c /home/mustafa/arm-gnu-toolchain-13.2.rel1-x86_64-arm-none-eabi/arm-gnu-toolchain-13.2.Rel1-x86_64-arm-none-eabi/bin/../lib/gcc/arm-none-eabi/13.2.1/../../../../arm-none-eabi/lib/thumb/v7-a/nofp/libg.a(libc_a-reallocr.o)
                0x600147e8                _realloc_r
 .text.strlcpy  0x60014b64       0x48 /home/mustafa/arm-gnu-toolchain-13.2.rel1-x86_64-arm-none-eabi/arm-gnu-toolchain-13.2.Rel1-x86_64-arm-none-eabi/bin/../lib/gcc/arm-none-eabi/13.2.1/../../../../arm-none-eabi/lib/thumb/v7-a/nofp/libg.a(libc_a-strlcpy.o)
                0x60014b64                strlcpy
 .text._malloc_trim_r
                0x60014bac       0xc0 /home/mustafa/arm-gnu-toolchain-13.2.rel1-x86_64-arm-none-eabi/arm-gnu-toolchain-13.2.Rel1-x86_64-arm-none-eabi/bin/../lib/gcc/arm-none-eabi/13.2.1/../../../../arm-none-eabi/lib/thumb/v7-a/nofp/libg.a(libc_a-freer.o)
                0x60014bac                _malloc_trim_r
 .text._free_r  0x60014c6c      0x208 /home/mustafa/arm-gnu-toolchain-13.2.rel1-x86_64-arm-none-eabi/arm-gnu-toolchain-13.2.Rel1-x86_64-arm-none-eabi/bin/../lib/gcc/arm-none-eabi/13.2.1/../../../../arm-none-eabi/lib/thumb/v7-a/nofp/libg.a(libc_a-freer.o)
                0x60014c6c                _free_r
 .text._strtol_l.part.0
                0x60014e74      0x114 /home/mustafa/arm-gnu-toolchain-13.2.rel1-x86_64-arm-none-eabi/arm-gnu-toolchain-13.2.Rel1-x86_64-arm-none-eabi/bin/../lib/gcc/arm-none-eabi/13.2.1/../../../../arm-none-eabi/lib/thumb/v7-a/nofp/libg.a(libc_a-strtol.o)
 .text._strtol_r
                0x60014f88       0x2c /home/mustafa/arm-gnu-toolchain-13.2.rel1-x86_64-arm-none-eabi/arm-gnu-toolchain-13.2.Rel1-x86_64-arm-none-eabi/bin/../lib/gcc/arm-none-eabi/13.2.1/../../../../arm-none-eabi/lib/thumb/v7-a/nofp/libg.a(libc_a-strtol.o)
                0x60014f88                _strtol_r
 .text.strtol_l
                0x60014fb4       0x44 /home/mustafa/arm-gnu-toolchain-13.2.rel1-x86_64-arm-none-eabi/arm-gnu-toolchain-13.2.Rel1-x86_64-arm-none-eabi/bin/../lib/gcc/arm-none-eabi/13.2.1/../../../../arm-none-eabi/lib/thumb/v7-a/nofp/libg.a(libc_a-strtol.o)
                0x60014fb4                strtol_l
 .text.strtol   0x60014ff8       0x44 /home/mustafa/arm-gnu-toolchain-13.2.rel1-x86_64-arm-none-eabi/arm-gnu-toolchain-13.2.Rel1-x86_64-arm-none-eabi/bin/../lib/gcc/arm-none-eabi/13.2.1/../../../../arm-none-eabi/lib/thumb/v7-a/nofp/libg.a(libc_a-strtol.o)
                0x60014ff8                strtol
 .text._strtoul_l.isra.0
                0x6001503c      0x130 /home/mustafa/arm-gnu-toolchain-13.2.rel1-x86_64-arm-none-eabi/arm-gnu-toolchain-13.2.Rel1-x86_64-arm-none-eabi/bin/../lib/gcc/arm-none-eabi/13.2.1/../../../../arm-none-eabi/lib/thumb/v7-a/nofp/libg.a(libc_a-strtoul.o)
 .text._strtoul_r
                0x6001516c        0x4 /home/mustafa/arm-gnu-toolchain-13.2.rel1-x86_64-arm-none-eabi/arm-gnu-toolchain-13.2.Rel1-x86_64-arm-none-eabi/bin/../lib/gcc/arm-none-eabi/13.2.1/../../../../arm-none-eabi/lib/thumb/v7-a/nofp/libg.a(libc_a-strtoul.o)
                0x6001516c                _strtoul_r
 .text.strtoul_l
                0x60015170       0x20 /home/mustafa/arm-gnu-toolchain-13.2.rel1-x86_64-arm-none-eabi/arm-gnu-toolchain-13.2.Rel1-x86_64-arm-none-eabi/bin/../lib/gcc/arm-none-eabi/13.2.1/../../../../arm-none-eabi/lib/thumb/v7-a/nofp/libg.a(libc_a-strtoul.o)
                0x60015170                strtoul_l
 .text.strtoul  0x60015190       0x20 /home/mustafa/arm-gnu-toolchain-13.2.rel1-x86_64-arm-none-eabi/arm-gnu-toolchain-13.2.Rel1-x86_64-arm-none-eabi/bin/../lib/gcc/arm-none-eabi/13.2.1/../../../../arm-none-eabi/lib/thumb/v7-a/nofp/libg.a(libc_a-strtoul.o)
                0x60015190                strtoul
 .text.strncasecmp
                0x600151b0       0x54 /home/mustafa/arm-gnu-toolchain-13.2.rel1-x86_64-arm-none-eabi/arm-gnu-toolchain-13.2.Rel1-x86_64-arm-none-eabi/bin/../lib/gcc/arm-none-eabi/13.2.1/../../../../arm-none-eabi/lib/thumb/v7-a/nofp/libg.a(libc_a-strncasecmp.o)
                0x600151b0                strncasecmp
 .text._findenv_r
                0x60015204       0x80 /home/mustafa/arm-gnu-toolchain-13.2.rel1-x86_64-arm-none-eabi/arm-gnu-toolchain-13.2.Rel1-x86_64-arm-none-eabi/bin/../lib/gcc/arm-none-eabi/13.2.1/../../../../arm-none-eabi/lib/thumb/v7-a/nofp/libg.a(libc_a-getenv_r.o)
                0x60015204                _findenv_r
 .text._getenv_r
                0x60015284       0x10 /home/mustafa/arm-gnu-toolchain-13.2.rel1-x86_64-arm-none-eabi/arm-gnu-toolchain-13.2.Rel1-x86_64-arm-none-eabi/bin/../lib/gcc/arm-none-eabi/13.2.1/../../../../arm-none-eabi/lib/thumb/v7-a/nofp/libg.a(libc_a-getenv_r.o)
                0x60015284                _getenv_r
 .text.strncpy  0x60015294       0x74 /home/mustafa/arm-gnu-toolchain-13.2.rel1-x86_64-arm-none-eabi/arm-gnu-toolchain-13.2.Rel1-x86_64-arm-none-eabi/bin/../lib/gcc/arm-none-eabi/13.2.1/../../../../arm-none-eabi/lib/thumb/v7-a/nofp/libg.a(libc_a-strncpy.o)
                0x60015294                strncpy
 .text.__gettzinfo
                0x60015308        0xc /home/mustafa/arm-gnu-toolchain-13.2.rel1-x86_64-arm-none-eabi/arm-gnu-toolchain-13.2.Rel1-x86_64-arm-none-eabi/bin/../lib/gcc/arm-none-eabi/13.2.1/../../../../arm-none-eabi/lib/thumb/v7-a/nofp/libg.a(libc_a-gettzinfo.o)
                0x60015308                __gettzinfo
 .text.__sread  0x60015314       0x24 /home/mustafa/arm-gnu-toolchain-13.2.rel1-x86_64-arm-none-eabi/arm-gnu-toolchain-13.2.Rel1-x86_64-arm-none-eabi/bin/../lib/gcc/arm-none-eabi/13.2.1/../../../../arm-none-eabi/lib/thumb/v7-a/nofp/libg.a(libc_a-stdio.o)
                0x60015314                __sread
 .text.__seofread
                0x60015338        0x4 /home/mustafa/arm-gnu-toolchain-13.2.rel1-x86_64-arm-none-eabi/arm-gnu-toolchain-13.2.Rel1-x86_64-arm-none-eabi/bin/../lib/gcc/arm-none-eabi/13.2.1/../../../../arm-none-eabi/lib/thumb/v7-a/nofp/libg.a(libc_a-stdio.o)
                0x60015338                __seofread
 .text.__swrite
                0x6001533c       0x40 /home/mustafa/arm-gnu-toolchain-13.2.rel1-x86_64-arm-none-eabi/arm-gnu-toolchain-13.2.Rel1-x86_64-arm-none-eabi/bin/../lib/gcc/arm-none-eabi/13.2.1/../../../../arm-none-eabi/lib/thumb/v7-a/nofp/libg.a(libc_a-stdio.o)
                0x6001533c                __swrite
 .text.__sseek  0x6001537c       0x24 /home/mustafa/arm-gnu-toolchain-13.2.rel1-x86_64-arm-none-eabi/arm-gnu-toolchain-13.2.Rel1-x86_64-arm-none-eabi/bin/../lib/gcc/arm-none-eabi/13.2.1/../../../../arm-none-eabi/lib/thumb/v7-a/nofp/libg.a(libc_a-stdio.o)
                0x6001537c                __sseek
 .text.__sclose
                0x600153a0        0x8 /home/mustafa/arm-gnu-toolchain-13.2.rel1-x86_64-arm-none-eabi/arm-gnu-toolchain-13.2.Rel1-x86_64-arm-none-eabi/bin/../lib/gcc/arm-none-eabi/13.2.1/../../../../arm-none-eabi/lib/thumb/v7-a/nofp/libg.a(libc_a-stdio.o)
                0x600153a0                __sclose
 .text._wctomb_r
                0x600153a8       0x14 /home/mustafa/arm-gnu-toolchain-13.2.rel1-x86_64-arm-none-eabi/arm-gnu-toolchain-13.2.Rel1-x86_64-arm-none-eabi/bin/../lib/gcc/arm-none-eabi/13.2.1/../../../../arm-none-eabi/lib/thumb/v7-a/nofp/libg.a(libc_a-wctomb_r.o)
                0x600153a8                _wctomb_r
 .text.__ascii_wctomb
                0x600153bc       0x1c /home/mustafa/arm-gnu-toolchain-13.2.rel1-x86_64-arm-none-eabi/arm-gnu-toolchain-13.2.Rel1-x86_64-arm-none-eabi/bin/../lib/gcc/arm-none-eabi/13.2.1/../../../../arm-none-eabi/lib/thumb/v7-a/nofp/libg.a(libc_a-wctomb_r.o)
                0x600153bc                __ascii_wctomb
 .text.__utf8_wctomb
                0x600153d8       0xa0 /home/mustafa/arm-gnu-toolchain-13.2.rel1-x86_64-arm-none-eabi/arm-gnu-toolchain-13.2.Rel1-x86_64-arm-none-eabi/bin/../lib/gcc/arm-none-eabi/13.2.1/../../../../arm-none-eabi/lib/thumb/v7-a/nofp/libg.a(libc_a-wctomb_r.o)
                0x600153d8                __utf8_wctomb
 .text.__sjis_wctomb
                0x60015478       0x58 /home/mustafa/arm-gnu-toolchain-13.2.rel1-x86_64-arm-none-eabi/arm-gnu-toolchain-13.2.Rel1-x86_64-arm-none-eabi/bin/../lib/gcc/arm-none-eabi/13.2.1/../../../../arm-none-eabi/lib/thumb/v7-a/nofp/libg.a(libc_a-wctomb_r.o)
                0x60015478                __sjis_wctomb
 .text.__eucjp_wctomb
                0x600154d0       0x74 /home/mustafa/arm-gnu-toolchain-13.2.rel1-x86_64-arm-none-eabi/arm-gnu-toolchain-13.2.Rel1-x86_64-arm-none-eabi/bin/../lib/gcc/arm-none-eabi/13.2.1/../../../../arm-none-eabi/lib/thumb/v7-a/nofp/libg.a(libc_a-wctomb_r.o)
                0x600154d0                __eucjp_wctomb
 .text.__jis_wctomb
                0x60015544       0x80 /home/mustafa/arm-gnu-toolchain-13.2.rel1-x86_64-arm-none-eabi/arm-gnu-toolchain-13.2.Rel1-x86_64-arm-none-eabi/bin/../lib/gcc/arm-none-eabi/13.2.1/../../../../arm-none-eabi/lib/thumb/v7-a/nofp/libg.a(libc_a-wctomb_r.o)
                0x60015544                __jis_wctomb
 .text._sbrk_r  0x600155c4       0x28 /home/mustafa/arm-gnu-toolchain-13.2.rel1-x86_64-arm-none-eabi/arm-gnu-toolchain-13.2.Rel1-x86_64-arm-none-eabi/bin/../lib/gcc/arm-none-eabi/13.2.1/../../../../arm-none-eabi/lib/thumb/v7-a/nofp/libg.a(libc_a-sbrkr.o)
                0x600155c4                _sbrk_r
 .text.__sfvwrite_r
                0x600155ec      0x304 /home/mustafa/arm-gnu-toolchain-13.2.rel1-x86_64-arm-none-eabi/arm-gnu-toolchain-13.2.Rel1-x86_64-arm-none-eabi/bin/../lib/gcc/arm-none-eabi/13.2.1/../../../../arm-none-eabi/lib/thumb/v7-a/nofp/libg.a(libc_a-fvwrite.o)
                0x600155ec                __sfvwrite_r
 .text._fwalk_sglue
                0x600158f0       0x44 /home/mustafa/arm-gnu-toolchain-13.2.rel1-x86_64-arm-none-eabi/arm-gnu-toolchain-13.2.Rel1-x86_64-arm-none-eabi/bin/../lib/gcc/arm-none-eabi/13.2.1/../../../../arm-none-eabi/lib/thumb/v7-a/nofp/libg.a(libc_a-fwalk.o)
                0x600158f0                _fwalk_sglue
 .text._write_r
                0x60015934       0x30 /home/mustafa/arm-gnu-toolchain-13.2.rel1-x86_64-arm-none-eabi/arm-gnu-toolchain-13.2.Rel1-x86_64-arm-none-eabi/bin/../lib/gcc/arm-none-eabi/13.2.1/../../../../arm-none-eabi/lib/thumb/v7-a/nofp/libg.a(libc_a-writer.o)
                0x60015934                _write_r
 .text.siscanf  0x60015964       0x5c /home/mustafa/arm-gnu-toolchain-13.2.rel1-x86_64-arm-none-eabi/arm-gnu-toolchain-13.2.Rel1-x86_64-arm-none-eabi/bin/../lib/gcc/arm-none-eabi/13.2.1/../../../../arm-none-eabi/lib/thumb/v7-a/nofp/libg.a(libc_a-siscanf.o)
                0x60015964                siscanf
 .text._siscanf_r
                0x600159c0       0x58 /home/mustafa/arm-gnu-toolchain-13.2.rel1-x86_64-arm-none-eabi/arm-gnu-toolchain-13.2.Rel1-x86_64-arm-none-eabi/bin/../lib/gcc/arm-none-eabi/13.2.1/../../../../arm-none-eabi/lib/thumb/v7-a/nofp/libg.a(libc_a-siscanf.o)
                0x600159c0                _siscanf_r
 .text._sungetc_r
                0x60015a18       0x7c /home/mustafa/arm-gnu-toolchain-13.2.rel1-x86_64-arm-none-eabi/arm-gnu-toolchain-13.2.Rel1-x86_64-arm-none-eabi/bin/../lib/gcc/arm-none-eabi/13.2.1/../../../../arm-none-eabi/lib/thumb/v7-a/nofp/libg.a(libc_a-svfiscanf.o)
                0x60015a18                _sungetc_r
 .text.__ssrefill_r
                0x60015a94       0x38 /home/mustafa/arm-gnu-toolchain-13.2.rel1-x86_64-arm-none-eabi/arm-gnu-toolchain-13.2.Rel1-x86_64-arm-none-eabi/bin/../lib/gcc/arm-none-eabi/13.2.1/../../../../arm-none-eabi/lib/thumb/v7-a/nofp/libg.a(libc_a-svfiscanf.o)
                0x60015a94                __ssrefill_r
 .text._sfread_r
                0x60015acc       0xa8 /home/mustafa/arm-gnu-toolchain-13.2.rel1-x86_64-arm-none-eabi/arm-gnu-toolchain-13.2.Rel1-x86_64-arm-none-eabi/bin/../lib/gcc/arm-none-eabi/13.2.1/../../../../arm-none-eabi/lib/thumb/v7-a/nofp/libg.a(libc_a-svfiscanf.o)
                0x60015acc                _sfread_r
 .text.__ssvfiscanf_r
                0x60015b74     0x1670 /home/mustafa/arm-gnu-toolchain-13.2.rel1-x86_64-arm-none-eabi/arm-gnu-toolchain-13.2.Rel1-x86_64-arm-none-eabi/bin/../lib/gcc/arm-none-eabi/13.2.1/../../../../arm-none-eabi/lib/thumb/v7-a/nofp/libg.a(libc_a-svfiscanf.o)
                0x60015b74                __ssvfiscanf_r
 .text._vfprintf_r
                0x600171e4     0x1d40 /home/mustafa/arm-gnu-toolchain-13.2.rel1-x86_64-arm-none-eabi/arm-gnu-toolchain-13.2.Rel1-x86_64-arm-none-eabi/bin/../lib/gcc/arm-none-eabi/13.2.1/../../../../arm-none-eabi/lib/thumb/v7-a/nofp/libg.a(libc_a-vfprintf.o)
                0x600171e4                _vfprintf_r
 .text.vfprintf
                0x60018f24       0x20 /home/mustafa/arm-gnu-toolchain-13.2.rel1-x86_64-arm-none-eabi/arm-gnu-toolchain-13.2.Rel1-x86_64-arm-none-eabi/bin/../lib/gcc/arm-none-eabi/13.2.1/../../../../arm-none-eabi/lib/thumb/v7-a/nofp/libg.a(libc_a-vfprintf.o)
                0x60018f24                vfprintf
 .text.__sbprintf
                0x60018f44       0x80 /home/mustafa/arm-gnu-toolchain-13.2.rel1-x86_64-arm-none-eabi/arm-gnu-toolchain-13.2.Rel1-x86_64-arm-none-eabi/bin/../lib/gcc/arm-none-eabi/13.2.1/../../../../arm-none-eabi/lib/thumb/v7-a/nofp/libg.a(libc_a-vfprintf.o)
 .text.__sprint_r.part.0
                0x60018fc4       0x78 /home/mustafa/arm-gnu-toolchain-13.2.rel1-x86_64-arm-none-eabi/arm-gnu-toolchain-13.2.Rel1-x86_64-arm-none-eabi/bin/../lib/gcc/arm-none-eabi/13.2.1/../../../../arm-none-eabi/lib/thumb/v7-a/nofp/libg.a(libc_a-vfiprintf.o)
 .text.__sprint_r
                0x6001903c       0x14 /home/mustafa/arm-gnu-toolchain-13.2.rel1-x86_64-arm-none-eabi/arm-gnu-toolchain-13.2.Rel1-x86_64-arm-none-eabi/bin/../lib/gcc/arm-none-eabi/13.2.1/../../../../arm-none-eabi/lib/thumb/v7-a/nofp/libg.a(libc_a-vfiprintf.o)
                0x6001903c                __sprint_r
 .text._vfiprintf_r
                0x60019050      0xffc /home/mustafa/arm-gnu-toolchain-13.2.rel1-x86_64-arm-none-eabi/arm-gnu-toolchain-13.2.Rel1-x86_64-arm-none-eabi/bin/../lib/gcc/arm-none-eabi/13.2.1/../../../../arm-none-eabi/lib/thumb/v7-a/nofp/libg.a(libc_a-vfiprintf.o)
                0x60019050                _vfiprintf_r
 .text.vfiprintf
                0x6001a04c       0x20 /home/mustafa/arm-gnu-toolchain-13.2.rel1-x86_64-arm-none-eabi/arm-gnu-toolchain-13.2.Rel1-x86_64-arm-none-eabi/bin/../lib/gcc/arm-none-eabi/13.2.1/../../../../arm-none-eabi/lib/thumb/v7-a/nofp/libg.a(libc_a-vfiprintf.o)
                0x6001a04c                vfiprintf
 .text.__sbprintf
                0x6001a06c       0x80 /home/mustafa/arm-gnu-toolchain-13.2.rel1-x86_64-arm-none-eabi/arm-gnu-toolchain-13.2.Rel1-x86_64-arm-none-eabi/bin/../lib/gcc/arm-none-eabi/13.2.1/../../../../arm-none-eabi/lib/thumb/v7-a/nofp/libg.a(libc_a-vfiprintf.o)
 .text.__register_exitproc
                0x6001a0ec       0x88 /home/mustafa/arm-gnu-toolchain-13.2.rel1-x86_64-arm-none-eabi/arm-gnu-toolchain-13.2.Rel1-x86_64-arm-none-eabi/bin/../lib/gcc/arm-none-eabi/13.2.1/../../../../arm-none-eabi/lib/thumb/v7-a/nofp/libg.a(libc_a-__atexit.o)
                0x6001a0ec                __register_exitproc
 .text._mbtowc_r
                0x6001a174       0x14 /home/mustafa/arm-gnu-toolchain-13.2.rel1-x86_64-arm-none-eabi/arm-gnu-toolchain-13.2.Rel1-x86_64-arm-none-eabi/bin/../lib/gcc/arm-none-eabi/13.2.1/../../../../arm-none-eabi/lib/thumb/v7-a/nofp/libg.a(libc_a-mbtowc_r.o)
                0x6001a174                _mbtowc_r
 .text.__ascii_mbtowc
                0x6001a188       0x24 /home/mustafa/arm-gnu-toolchain-13.2.rel1-x86_64-arm-none-eabi/arm-gnu-toolchain-13.2.Rel1-x86_64-arm-none-eabi/bin/../lib/gcc/arm-none-eabi/13.2.1/../../../../arm-none-eabi/lib/thumb/v7-a/nofp/libg.a(libc_a-mbtowc_r.o)
                0x6001a188                __ascii_mbtowc
 .text.__utf8_mbtowc
                0x6001a1ac      0x1e0 /home/mustafa/arm-gnu-toolchain-13.2.rel1-x86_64-arm-none-eabi/arm-gnu-toolchain-13.2.Rel1-x86_64-arm-none-eabi/bin/../lib/gcc/arm-none-eabi/13.2.1/../../../../arm-none-eabi/lib/thumb/v7-a/nofp/libg.a(libc_a-mbtowc_r.o)
                0x6001a1ac                __utf8_mbtowc
 .text.__sjis_mbtowc
                0x6001a38c       0x84 /home/mustafa/arm-gnu-toolchain-13.2.rel1-x86_64-arm-none-eabi/arm-gnu-toolchain-13.2.Rel1-x86_64-arm-none-eabi/bin/../lib/gcc/arm-none-eabi/13.2.1/../../../../arm-none-eabi/lib/thumb/v7-a/nofp/libg.a(libc_a-mbtowc_r.o)
                0x6001a38c                __sjis_mbtowc
 .text.__eucjp_mbtowc
                0x6001a410       0xb8 /home/mustafa/arm-gnu-toolchain-13.2.rel1-x86_64-arm-none-eabi/arm-gnu-toolchain-13.2.Rel1-x86_64-arm-none-eabi/bin/../lib/gcc/arm-none-eabi/13.2.1/../../../../arm-none-eabi/lib/thumb/v7-a/nofp/libg.a(libc_a-mbtowc_r.o)
                0x6001a410                __eucjp_mbtowc
 .text.__jis_mbtowc
                0x6001a4c8      0x14c /home/mustafa/arm-gnu-toolchain-13.2.rel1-x86_64-arm-none-eabi/arm-gnu-toolchain-13.2.Rel1-x86_64-arm-none-eabi/bin/../lib/gcc/arm-none-eabi/13.2.1/../../../../arm-none-eabi/lib/thumb/v7-a/nofp/libg.a(libc_a-mbtowc_r.o)
                0x6001a4c8                __jis_mbtowc
 .text._mbrtowc_r
                0x6001a614       0x58 /home/mustafa/arm-gnu-toolchain-13.2.rel1-x86_64-arm-none-eabi/arm-gnu-toolchain-13.2.Rel1-x86_64-arm-none-eabi/bin/../lib/gcc/arm-none-eabi/13.2.1/../../../../arm-none-eabi/lib/thumb/v7-a/nofp/libg.a(libc_a-mbrtowc.o)
                0x6001a614                _mbrtowc_r
 .text.mbrtowc  0x6001a66c       0x58 /home/mustafa/arm-gnu-toolchain-13.2.rel1-x86_64-arm-none-eabi/arm-gnu-toolchain-13.2.Rel1-x86_64-arm-none-eabi/bin/../lib/gcc/arm-none-eabi/13.2.1/../../../../arm-none-eabi/lib/thumb/v7-a/nofp/libg.a(libc_a-mbrtowc.o)
                0x6001a66c                mbrtowc
 .text.strcasecmp
                0x6001a6c4       0x44 /home/mustafa/arm-gnu-toolchain-13.2.rel1-x86_64-arm-none-eabi/arm-gnu-toolchain-13.2.Rel1-x86_64-arm-none-eabi/bin/../lib/gcc/arm-none-eabi/13.2.1/../../../../arm-none-eabi/lib/thumb/v7-a/nofp/libg.a(libc_a-strcasecmp.o)
                0x6001a6c4                strcasecmp
 .text.strcat   0x6001a708       0x40 /home/mustafa/arm-gnu-toolchain-13.2.rel1-x86_64-arm-none-eabi/arm-gnu-toolchain-13.2.Rel1-x86_64-arm-none-eabi/bin/../lib/gcc/arm-none-eabi/13.2.1/../../../../arm-none-eabi/lib/thumb/v7-a/nofp/libg.a(libc_a-strcat.o)
                0x6001a708                strcat
 .text._fclose_r
                0x6001a748       0xc0 /home/mustafa/arm-gnu-toolchain-13.2.rel1-x86_64-arm-none-eabi/arm-gnu-toolchain-13.2.Rel1-x86_64-arm-none-eabi/bin/../lib/gcc/arm-none-eabi/13.2.1/../../../../arm-none-eabi/lib/thumb/v7-a/nofp/libg.a(libc_a-fclose.o)
                0x6001a748                _fclose_r
 .text.fclose   0x6001a808       0x10 /home/mustafa/arm-gnu-toolchain-13.2.rel1-x86_64-arm-none-eabi/arm-gnu-toolchain-13.2.Rel1-x86_64-arm-none-eabi/bin/../lib/gcc/arm-none-eabi/13.2.1/../../../../arm-none-eabi/lib/thumb/v7-a/nofp/libg.a(libc_a-fclose.o)
                0x6001a808                fclose
 .text.__swsetup_r
                0x6001a818       0xc4 /home/mustafa/arm-gnu-toolchain-13.2.rel1-x86_64-arm-none-eabi/arm-gnu-toolchain-13.2.Rel1-x86_64-arm-none-eabi/bin/../lib/gcc/arm-none-eabi/13.2.1/../../../../arm-none-eabi/lib/thumb/v7-a/nofp/libg.a(libc_a-wsetup.o)
                0x6001a818                __swsetup_r
 .text.__smakebuf_r
                0x6001a8dc       0xdc /home/mustafa/arm-gnu-toolchain-13.2.rel1-x86_64-arm-none-eabi/arm-gnu-toolchain-13.2.Rel1-x86_64-arm-none-eabi/bin/../lib/gcc/arm-none-eabi/13.2.1/../../../../arm-none-eabi/lib/thumb/v7-a/nofp/libg.a(libc_a-makebuf.o)
                0x6001a8dc                __smakebuf_r
 .text.__swhatbuf_r
                0x6001a9b8       0x5c /home/mustafa/arm-gnu-toolchain-13.2.rel1-x86_64-arm-none-eabi/arm-gnu-toolchain-13.2.Rel1-x86_64-arm-none-eabi/bin/../lib/gcc/arm-none-eabi/13.2.1/../../../../arm-none-eabi/lib/thumb/v7-a/nofp/libg.a(libc_a-makebuf.o)
                0x6001a9b8                __swhatbuf_r
 .text._putc_r  0x6001aa14       0x78 /home/mustafa/arm-gnu-toolchain-13.2.rel1-x86_64-arm-none-eabi/arm-gnu-toolchain-13.2.Rel1-x86_64-arm-none-eabi/bin/../lib/gcc/arm-none-eabi/13.2.1/../../../../arm-none-eabi/lib/thumb/v7-a/nofp/libg.a(libc_a-putc.o)
                0x6001aa14                _putc_r
 .text.putc     0x6001aa8c       0x80 /home/mustafa/arm-gnu-toolchain-13.2.rel1-x86_64-arm-none-eabi/arm-gnu-toolchain-13.2.Rel1-x86_64-arm-none-eabi/bin/../lib/gcc/arm-none-eabi/13.2.1/../../../../arm-none-eabi/lib/thumb/v7-a/nofp/libg.a(libc_a-putc.o)
                0x6001aa8c                putc
 .text._wcsnrtombs_l
                0x6001ab0c       0xec /home/mustafa/arm-gnu-toolchain-13.2.rel1-x86_64-arm-none-eabi/arm-gnu-toolchain-13.2.Rel1-x86_64-arm-none-eabi/bin/../lib/gcc/arm-none-eabi/13.2.1/../../../../arm-none-eabi/lib/thumb/v7-a/nofp/libg.a(libc_a-wcsnrtombs.o)
                0x6001ab0c                _wcsnrtombs_l
 .text._wcsnrtombs_r
                0x6001abf8       0x28 /home/mustafa/arm-gnu-toolchain-13.2.rel1-x86_64-arm-none-eabi/arm-gnu-toolchain-13.2.Rel1-x86_64-arm-none-eabi/bin/../lib/gcc/arm-none-eabi/13.2.1/../../../../arm-none-eabi/lib/thumb/v7-a/nofp/libg.a(libc_a-wcsnrtombs.o)
                0x6001abf8                _wcsnrtombs_r
 .text.wcsnrtombs
                0x6001ac20       0x30 /home/mustafa/arm-gnu-toolchain-13.2.rel1-x86_64-arm-none-eabi/arm-gnu-toolchain-13.2.Rel1-x86_64-arm-none-eabi/bin/../lib/gcc/arm-none-eabi/13.2.1/../../../../arm-none-eabi/lib/thumb/v7-a/nofp/libg.a(libc_a-wcsnrtombs.o)
                0x6001ac20                wcsnrtombs
 .text.realloc  0x6001ac50       0x14 /home/mustafa/arm-gnu-toolchain-13.2.rel1-x86_64-arm-none-eabi/arm-gnu-toolchain-13.2.Rel1-x86_64-arm-none-eabi/bin/../lib/gcc/arm-none-eabi/13.2.1/../../../../arm-none-eabi/lib/thumb/v7-a/nofp/libg.a(libc_a-realloc.o)
                0x6001ac50                realloc
 .text.quorem   0x6001ac64      0x138 /home/mustafa/arm-gnu-toolchain-13.2.rel1-x86_64-arm-none-eabi/arm-gnu-toolchain-13.2.Rel1-x86_64-arm-none-eabi/bin/../lib/gcc/arm-none-eabi/13.2.1/../../../../arm-none-eabi/lib/thumb/v7-a/nofp/libg.a(libc_a-dtoa.o)
 *fill*         0x6001ad9c        0x4 
 .text._dtoa_r  0x6001ada0      0xf08 /home/mustafa/arm-gnu-toolchain-13.2.rel1-x86_64-arm-none-eabi/arm-gnu-toolchain-13.2.Rel1-x86_64-arm-none-eabi/bin/../lib/gcc/arm-none-eabi/13.2.1/../../../../arm-none-eabi/lib/thumb/v7-a/nofp/libg.a(libc_a-dtoa.o)
                0x6001ada0                _dtoa_r
 .text._close_r
                0x6001bca8       0x28 /home/mustafa/arm-gnu-toolchain-13.2.rel1-x86_64-arm-none-eabi/arm-gnu-toolchain-13.2.Rel1-x86_64-arm-none-eabi/bin/../lib/gcc/arm-none-eabi/13.2.1/../../../../arm-none-eabi/lib/thumb/v7-a/nofp/libg.a(libc_a-closer.o)
                0x6001bca8                _close_r
 .text._reclaim_reent
                0x6001bcd0       0x5c /home/mustafa/arm-gnu-toolchain-13.2.rel1-x86_64-arm-none-eabi/arm-gnu-toolchain-13.2.Rel1-x86_64-arm-none-eabi/bin/../lib/gcc/arm-none-eabi/13.2.1/../../../../arm-none-eabi/lib/thumb/v7-a/nofp/libg.a(libc_a-reent.o)
                0x6001bcd0                _reclaim_reent
 .text.__sflush_r
                0x6001bd2c      0x12c /home/mustafa/arm-gnu-toolchain-13.2.rel1-x86_64-arm-none-eabi/arm-gnu-toolchain-13.2.Rel1-x86_64-arm-none-eabi/bin/../lib/gcc/arm-none-eabi/13.2.1/../../../../arm-none-eabi/lib/thumb/v7-a/nofp/libg.a(libc_a-fflush.o)
                0x6001bd2c                __sflush_r
 .text._fflush_r
                0x6001be58       0x54 /home/mustafa/arm-gnu-toolchain-13.2.rel1-x86_64-arm-none-eabi/arm-gnu-toolchain-13.2.Rel1-x86_64-arm-none-eabi/bin/../lib/gcc/arm-none-eabi/13.2.1/../../../../arm-none-eabi/lib/thumb/v7-a/nofp/libg.a(libc_a-fflush.o)
                0x6001be58                _fflush_r
 .text.fflush   0x6001beac       0x7c /home/mustafa/arm-gnu-toolchain-13.2.rel1-x86_64-arm-none-eabi/arm-gnu-toolchain-13.2.Rel1-x86_64-arm-none-eabi/bin/../lib/gcc/arm-none-eabi/13.2.1/../../../../arm-none-eabi/lib/thumb/v7-a/nofp/libg.a(libc_a-fflush.o)
                0x6001beac                fflush
 .text.__sccl   0x6001bf28       0xa0 /home/mustafa/arm-gnu-toolchain-13.2.rel1-x86_64-arm-none-eabi/arm-gnu-toolchain-13.2.Rel1-x86_64-arm-none-eabi/bin/../lib/gcc/arm-none-eabi/13.2.1/../../../../arm-none-eabi/lib/thumb/v7-a/nofp/libg.a(libc_a-sccl.o)
                0x6001bf28                __sccl
 .text.frexp    0x6001bfc8       0x6c /home/mustafa/arm-gnu-toolchain-13.2.rel1-x86_64-arm-none-eabi/arm-gnu-toolchain-13.2.Rel1-x86_64-arm-none-eabi/bin/../lib/gcc/arm-none-eabi/13.2.1/../../../../arm-none-eabi/lib/thumb/v7-a/nofp/libg.a(libm_a-s_frexp.o)
                0x6001bfc8                frexp
 .text.__env_lock
                0x6001c034        0xc /home/mustafa/arm-gnu-toolchain-13.2.rel1-x86_64-arm-none-eabi/arm-gnu-toolchain-13.2.Rel1-x86_64-arm-none-eabi/bin/../lib/gcc/arm-none-eabi/13.2.1/../../../../arm-none-eabi/lib/thumb/v7-a/nofp/libg.a(libc_a-envlock.o)
                0x6001c034                __env_lock
 .text.__env_unlock
                0x6001c040        0xc /home/mustafa/arm-gnu-toolchain-13.2.rel1-x86_64-arm-none-eabi/arm-gnu-toolchain-13.2.Rel1-x86_64-arm-none-eabi/bin/../lib/gcc/arm-none-eabi/13.2.1/../../../../arm-none-eabi/lib/thumb/v7-a/nofp/libg.a(libc_a-envlock.o)
                0x6001c040                __env_unlock
 .text.strncmp  0x6001c04c       0x80 /home/mustafa/arm-gnu-toolchain-13.2.rel1-x86_64-arm-none-eabi/arm-gnu-toolchain-13.2.Rel1-x86_64-arm-none-eabi/bin/../lib/gcc/arm-none-eabi/13.2.1/../../../../arm-none-eabi/lib/thumb/v7-a/nofp/libg.a(libc_a-strncmp.o)
                0x6001c04c                strncmp
 .text._strtoll_l.isra.0
                0x6001c0cc      0x164 /home/mustafa/arm-gnu-toolchain-13.2.rel1-x86_64-arm-none-eabi/arm-gnu-toolchain-13.2.Rel1-x86_64-arm-none-eabi/bin/../lib/gcc/arm-none-eabi/13.2.1/../../../../arm-none-eabi/lib/thumb/v7-a/nofp/libg.a(libc_a-strtoll.o)
 .text._strtoll_r
                0x6001c230        0x4 /home/mustafa/arm-gnu-toolchain-13.2.rel1-x86_64-arm-none-eabi/arm-gnu-toolchain-13.2.Rel1-x86_64-arm-none-eabi/bin/../lib/gcc/arm-none-eabi/13.2.1/../../../../arm-none-eabi/lib/thumb/v7-a/nofp/libg.a(libc_a-strtoll.o)
                0x6001c230                _strtoll_r
 .text.strtoll_l
                0x6001c234       0x20 /home/mustafa/arm-gnu-toolchain-13.2.rel1-x86_64-arm-none-eabi/arm-gnu-toolchain-13.2.Rel1-x86_64-arm-none-eabi/bin/../lib/gcc/arm-none-eabi/13.2.1/../../../../arm-none-eabi/lib/thumb/v7-a/nofp/libg.a(libc_a-strtoll.o)
                0x6001c234                strtoll_l
 .text.strtoll  0x6001c254       0x20 /home/mustafa/arm-gnu-toolchain-13.2.rel1-x86_64-arm-none-eabi/arm-gnu-toolchain-13.2.Rel1-x86_64-arm-none-eabi/bin/../lib/gcc/arm-none-eabi/13.2.1/../../../../arm-none-eabi/lib/thumb/v7-a/nofp/libg.a(libc_a-strtoll.o)
                0x6001c254                strtoll
 .text._strtoull_l.isra.0
                0x6001c274      0x184 /home/mustafa/arm-gnu-toolchain-13.2.rel1-x86_64-arm-none-eabi/arm-gnu-toolchain-13.2.Rel1-x86_64-arm-none-eabi/bin/../lib/gcc/arm-none-eabi/13.2.1/../../../../arm-none-eabi/lib/thumb/v7-a/nofp/libg.a(libc_a-strtoull.o)
 .text._strtoull_r
                0x6001c3f8        0x4 /home/mustafa/arm-gnu-toolchain-13.2.rel1-x86_64-arm-none-eabi/arm-gnu-toolchain-13.2.Rel1-x86_64-arm-none-eabi/bin/../lib/gcc/arm-none-eabi/13.2.1/../../../../arm-none-eabi/lib/thumb/v7-a/nofp/libg.a(libc_a-strtoull.o)
                0x6001c3f8                _strtoull_r
 .text.strtoull_l
                0x6001c3fc       0x20 /home/mustafa/arm-gnu-toolchain-13.2.rel1-x86_64-arm-none-eabi/arm-gnu-toolchain-13.2.Rel1-x86_64-arm-none-eabi/bin/../lib/gcc/arm-none-eabi/13.2.1/../../../../arm-none-eabi/lib/thumb/v7-a/nofp/libg.a(libc_a-strtoull.o)
                0x6001c3fc                strtoull_l
 .text.strtoull
                0x6001c41c       0x20 /home/mustafa/arm-gnu-toolchain-13.2.rel1-x86_64-arm-none-eabi/arm-gnu-toolchain-13.2.Rel1-x86_64-arm-none-eabi/bin/../lib/gcc/arm-none-eabi/13.2.1/../../../../arm-none-eabi/lib/thumb/v7-a/nofp/libg.a(libc_a-strtoull.o)
                0x6001c41c                strtoull
 .text._fstat_r
                0x6001c43c       0x2c /home/mustafa/arm-gnu-toolchain-13.2.rel1-x86_64-arm-none-eabi/arm-gnu-toolchain-13.2.Rel1-x86_64-arm-none-eabi/bin/../lib/gcc/arm-none-eabi/13.2.1/../../../../arm-none-eabi/lib/thumb/v7-a/nofp/libg.a(libc_a-fstatr.o)
                0x6001c43c                _fstat_r
 .text._isatty_r
                0x6001c468       0x28 /home/mustafa/arm-gnu-toolchain-13.2.rel1-x86_64-arm-none-eabi/arm-gnu-toolchain-13.2.Rel1-x86_64-arm-none-eabi/bin/../lib/gcc/arm-none-eabi/13.2.1/../../../../arm-none-eabi/lib/thumb/v7-a/nofp/libg.a(libc_a-isattyr.o)
                0x6001c468                _isatty_r
 .text._lseek_r
                0x6001c490       0x30 /home/mustafa/arm-gnu-toolchain-13.2.rel1-x86_64-arm-none-eabi/arm-gnu-toolchain-13.2.Rel1-x86_64-arm-none-eabi/bin/../lib/gcc/arm-none-eabi/13.2.1/../../../../arm-none-eabi/lib/thumb/v7-a/nofp/libg.a(libc_a-lseekr.o)
                0x6001c490                _lseek_r
 .text._read_r  0x6001c4c0       0x30 /home/mustafa/arm-gnu-toolchain-13.2.rel1-x86_64-arm-none-eabi/arm-gnu-toolchain-13.2.Rel1-x86_64-arm-none-eabi/bin/../lib/gcc/arm-none-eabi/13.2.1/../../../../arm-none-eabi/lib/thumb/v7-a/nofp/libg.a(libc_a-readr.o)
                0x6001c4c0                _read_r
 .text.iswspace
                0x6001c4f0        0x8 /home/mustafa/arm-gnu-toolchain-13.2.rel1-x86_64-arm-none-eabi/arm-gnu-toolchain-13.2.Rel1-x86_64-arm-none-eabi/bin/../lib/gcc/arm-none-eabi/13.2.1/../../../../arm-none-eabi/lib/thumb/v7-a/nofp/libg.a(libc_a-iswspace.o)
                0x6001c4f0                iswspace
 .text.iswspace_l
                0x6001c4f8       0x2c /home/mustafa/arm-gnu-toolchain-13.2.rel1-x86_64-arm-none-eabi/arm-gnu-toolchain-13.2.Rel1-x86_64-arm-none-eabi/bin/../lib/gcc/arm-none-eabi/13.2.1/../../../../arm-none-eabi/lib/thumb/v7-a/nofp/libg.a(libc_a-iswspace_l.o)
                0x6001c4f8                iswspace_l
 .text.__fputwc
                0x6001c524       0x84 /home/mustafa/arm-gnu-toolchain-13.2.rel1-x86_64-arm-none-eabi/arm-gnu-toolchain-13.2.Rel1-x86_64-arm-none-eabi/bin/../lib/gcc/arm-none-eabi/13.2.1/../../../../arm-none-eabi/lib/thumb/v7-a/nofp/libg.a(libc_a-fputwc.o)
                0x6001c524                __fputwc
 .text._fputwc_r
                0x6001c5a8       0x60 /home/mustafa/arm-gnu-toolchain-13.2.rel1-x86_64-arm-none-eabi/arm-gnu-toolchain-13.2.Rel1-x86_64-arm-none-eabi/bin/../lib/gcc/arm-none-eabi/13.2.1/../../../../arm-none-eabi/lib/thumb/v7-a/nofp/libg.a(libc_a-fputwc.o)
                0x6001c5a8                _fputwc_r
 .text.fputwc   0x6001c608       0x70 /home/mustafa/arm-gnu-toolchain-13.2.rel1-x86_64-arm-none-eabi/arm-gnu-toolchain-13.2.Rel1-x86_64-arm-none-eabi/bin/../lib/gcc/arm-none-eabi/13.2.1/../../../../arm-none-eabi/lib/thumb/v7-a/nofp/libg.a(libc_a-fputwc.o)
                0x6001c608                fputwc
 .text.__submore
                0x6001c678       0x74 /home/mustafa/arm-gnu-toolchain-13.2.rel1-x86_64-arm-none-eabi/arm-gnu-toolchain-13.2.Rel1-x86_64-arm-none-eabi/bin/../lib/gcc/arm-none-eabi/13.2.1/../../../../arm-none-eabi/lib/thumb/v7-a/nofp/libg.a(libc_a-ungetc.o)
                0x6001c678                __submore
 .text._ungetc_r
                0x6001c6ec      0x12c /home/mustafa/arm-gnu-toolchain-13.2.rel1-x86_64-arm-none-eabi/arm-gnu-toolchain-13.2.Rel1-x86_64-arm-none-eabi/bin/../lib/gcc/arm-none-eabi/13.2.1/../../../../arm-none-eabi/lib/thumb/v7-a/nofp/libg.a(libc_a-ungetc.o)
                0x6001c6ec                _ungetc_r
 .text.ungetc   0x6001c818       0x14 /home/mustafa/arm-gnu-toolchain-13.2.rel1-x86_64-arm-none-eabi/arm-gnu-toolchain-13.2.Rel1-x86_64-arm-none-eabi/bin/../lib/gcc/arm-none-eabi/13.2.1/../../../../arm-none-eabi/lib/thumb/v7-a/nofp/libg.a(libc_a-ungetc.o)
                0x6001c818                ungetc
 .text.category
                0x6001c82c       0x60 /home/mustafa/arm-gnu-toolchain-13.2.rel1-x86_64-arm-none-eabi/arm-gnu-toolchain-13.2.Rel1-x86_64-arm-none-eabi/bin/../lib/gcc/arm-none-eabi/13.2.1/../../../../arm-none-eabi/lib/thumb/v7-a/nofp/libg.a(libc_a-categories.o)
                0x6001c82c                category
 .text.__jp2uc  0x6001c88c      0x144 /home/mustafa/arm-gnu-toolchain-13.2.rel1-x86_64-arm-none-eabi/arm-gnu-toolchain-13.2.Rel1-x86_64-arm-none-eabi/bin/../lib/gcc/arm-none-eabi/13.2.1/../../../../arm-none-eabi/lib/thumb/v7-a/nofp/libg.a(libc_a-jp2uc.o)
 .text._jp2uc_l
                0x6001c9d0       0x6c /home/mustafa/arm-gnu-toolchain-13.2.rel1-x86_64-arm-none-eabi/arm-gnu-toolchain-13.2.Rel1-x86_64-arm-none-eabi/bin/../lib/gcc/arm-none-eabi/13.2.1/../../../../arm-none-eabi/lib/thumb/v7-a/nofp/libg.a(libc_a-jp2uc.o)
                0x6001c9d0                _jp2uc_l
 .text._jp2uc   0x6001ca3c       0x60 /home/mustafa/arm-gnu-toolchain-13.2.rel1-x86_64-arm-none-eabi/arm-gnu-toolchain-13.2.Rel1-x86_64-arm-none-eabi/bin/../lib/gcc/arm-none-eabi/13.2.1/../../../../arm-none-eabi/lib/thumb/v7-a/nofp/libg.a(libc_a-jp2uc.o)
                0x6001ca3c                _jp2uc
 .text._uc2jp_l
                0x6001ca9c       0x4c /home/mustafa/arm-gnu-toolchain-13.2.rel1-x86_64-arm-none-eabi/arm-gnu-toolchain-13.2.Rel1-x86_64-arm-none-eabi/bin/../lib/gcc/arm-none-eabi/13.2.1/../../../../arm-none-eabi/lib/thumb/v7-a/nofp/libg.a(libc_a-jp2uc.o)
                0x6001ca9c                _uc2jp_l
 .text.__swbuf_r
                0x6001cae8       0xac /home/mustafa/arm-gnu-toolchain-13.2.rel1-x86_64-arm-none-eabi/arm-gnu-toolchain-13.2.Rel1-x86_64-arm-none-eabi/bin/../lib/gcc/arm-none-eabi/13.2.1/../../../../arm-none-eabi/lib/thumb/v7-a/nofp/libg.a(libc_a-wbuf.o)
                0x6001cae8                __swbuf_r
 .text.__swbuf  0x6001cb94       0x14 /home/mustafa/arm-gnu-toolchain-13.2.rel1-x86_64-arm-none-eabi/arm-gnu-toolchain-13.2.Rel1-x86_64-arm-none-eabi/bin/../lib/gcc/arm-none-eabi/13.2.1/../../../../arm-none-eabi/lib/thumb/v7-a/nofp/libg.a(libc_a-wbuf.o)
                0x6001cb94                __swbuf
 .text.__assert_func
                0x6001cba8       0x44 /home/mustafa/arm-gnu-toolchain-13.2.rel1-x86_64-arm-none-eabi/arm-gnu-toolchain-13.2.Rel1-x86_64-arm-none-eabi/bin/../lib/gcc/arm-none-eabi/13.2.1/../../../../arm-none-eabi/lib/thumb/v7-a/nofp/libg.a(libc_a-assert.o)
                0x6001cba8                __assert_func
 .text.__assert
                0x6001cbec        0xc /home/mustafa/arm-gnu-toolchain-13.2.rel1-x86_64-arm-none-eabi/arm-gnu-toolchain-13.2.Rel1-x86_64-arm-none-eabi/bin/../lib/gcc/arm-none-eabi/13.2.1/../../../../arm-none-eabi/lib/thumb/v7-a/nofp/libg.a(libc_a-assert.o)
                0x6001cbec                __assert
 .text._Balloc  0x6001cbf8       0x4c /home/mustafa/arm-gnu-toolchain-13.2.rel1-x86_64-arm-none-eabi/arm-gnu-toolchain-13.2.Rel1-x86_64-arm-none-eabi/bin/../lib/gcc/arm-none-eabi/13.2.1/../../../../arm-none-eabi/lib/thumb/v7-a/nofp/libg.a(libc_a-mprec.o)
                0x6001cbf8                _Balloc
 .text._Bfree   0x6001cc44       0x14 /home/mustafa/arm-gnu-toolchain-13.2.rel1-x86_64-arm-none-eabi/arm-gnu-toolchain-13.2.Rel1-x86_64-arm-none-eabi/bin/../lib/gcc/arm-none-eabi/13.2.1/../../../../arm-none-eabi/lib/thumb/v7-a/nofp/libg.a(libc_a-mprec.o)
                0x6001cc44                _Bfree
 .text.__multadd
                0x6001cc58       0xa8 /home/mustafa/arm-gnu-toolchain-13.2.rel1-x86_64-arm-none-eabi/arm-gnu-toolchain-13.2.Rel1-x86_64-arm-none-eabi/bin/../lib/gcc/arm-none-eabi/13.2.1/../../../../arm-none-eabi/lib/thumb/v7-a/nofp/libg.a(libc_a-mprec.o)
                0x6001cc58                __multadd
 .text.__s2b    0x6001cd00       0xb8 /home/mustafa/arm-gnu-toolchain-13.2.rel1-x86_64-arm-none-eabi/arm-gnu-toolchain-13.2.Rel1-x86_64-arm-none-eabi/bin/../lib/gcc/arm-none-eabi/13.2.1/../../../../arm-none-eabi/lib/thumb/v7-a/nofp/libg.a(libc_a-mprec.o)
                0x6001cd00                __s2b
 .text.__hi0bits
                0x6001cdb8       0x48 /home/mustafa/arm-gnu-toolchain-13.2.rel1-x86_64-arm-none-eabi/arm-gnu-toolchain-13.2.Rel1-x86_64-arm-none-eabi/bin/../lib/gcc/arm-none-eabi/13.2.1/../../../../arm-none-eabi/lib/thumb/v7-a/nofp/libg.a(libc_a-mprec.o)
                0x6001cdb8                __hi0bits
 .text.__lo0bits
                0x6001ce00       0x58 /home/mustafa/arm-gnu-toolchain-13.2.rel1-x86_64-arm-none-eabi/arm-gnu-toolchain-13.2.Rel1-x86_64-arm-none-eabi/bin/../lib/gcc/arm-none-eabi/13.2.1/../../../../arm-none-eabi/lib/thumb/v7-a/nofp/libg.a(libc_a-mprec.o)
                0x6001ce00                __lo0bits
 .text.__i2b    0x6001ce58       0x60 /home/mustafa/arm-gnu-toolchain-13.2.rel1-x86_64-arm-none-eabi/arm-gnu-toolchain-13.2.Rel1-x86_64-arm-none-eabi/bin/../lib/gcc/arm-none-eabi/13.2.1/../../../../arm-none-eabi/lib/thumb/v7-a/nofp/libg.a(libc_a-mprec.o)
                0x6001ce58                __i2b
 .text.__multiply
                0x6001ceb8      0x174 /home/mustafa/arm-gnu-toolchain-13.2.rel1-x86_64-arm-none-eabi/arm-gnu-toolchain-13.2.Rel1-x86_64-arm-none-eabi/bin/../lib/gcc/arm-none-eabi/13.2.1/../../../../arm-none-eabi/lib/thumb/v7-a/nofp/libg.a(libc_a-mprec.o)
                0x6001ceb8                __multiply
 .text.__pow5mult
                0x6001d02c       0xbc /home/mustafa/arm-gnu-toolchain-13.2.rel1-x86_64-arm-none-eabi/arm-gnu-toolchain-13.2.Rel1-x86_64-arm-none-eabi/bin/../lib/gcc/arm-none-eabi/13.2.1/../../../../arm-none-eabi/lib/thumb/v7-a/nofp/libg.a(libc_a-mprec.o)
                0x6001d02c                __pow5mult
 .text.__lshift
                0x6001d0e8       0xec /home/mustafa/arm-gnu-toolchain-13.2.rel1-x86_64-arm-none-eabi/arm-gnu-toolchain-13.2.Rel1-x86_64-arm-none-eabi/bin/../lib/gcc/arm-none-eabi/13.2.1/../../../../arm-none-eabi/lib/thumb/v7-a/nofp/libg.a(libc_a-mprec.o)
                0x6001d0e8                __lshift
 .text.__mcmp   0x6001d1d4       0x3c /home/mustafa/arm-gnu-toolchain-13.2.rel1-x86_64-arm-none-eabi/arm-gnu-toolchain-13.2.Rel1-x86_64-arm-none-eabi/bin/../lib/gcc/arm-none-eabi/13.2.1/../../../../arm-none-eabi/lib/thumb/v7-a/nofp/libg.a(libc_a-mprec.o)
                0x6001d1d4                __mcmp
 .text.__mdiff  0x6001d210      0x19c /home/mustafa/arm-gnu-toolchain-13.2.rel1-x86_64-arm-none-eabi/arm-gnu-toolchain-13.2.Rel1-x86_64-arm-none-eabi/bin/../lib/gcc/arm-none-eabi/13.2.1/../../../../arm-none-eabi/lib/thumb/v7-a/nofp/libg.a(libc_a-mprec.o)
                0x6001d210                __mdiff
 .text.__ulp    0x6001d3ac       0x4c /home/mustafa/arm-gnu-toolchain-13.2.rel1-x86_64-arm-none-eabi/arm-gnu-toolchain-13.2.Rel1-x86_64-arm-none-eabi/bin/../lib/gcc/arm-none-eabi/13.2.1/../../../../arm-none-eabi/lib/thumb/v7-a/nofp/libg.a(libc_a-mprec.o)
                0x6001d3ac                __ulp
 .text.__b2d    0x6001d3f8       0xc8 /home/mustafa/arm-gnu-toolchain-13.2.rel1-x86_64-arm-none-eabi/arm-gnu-toolchain-13.2.Rel1-x86_64-arm-none-eabi/bin/../lib/gcc/arm-none-eabi/13.2.1/../../../../arm-none-eabi/lib/thumb/v7-a/nofp/libg.a(libc_a-mprec.o)
                0x6001d3f8                __b2d
 .text.__d2b    0x6001d4c0       0xc0 /home/mustafa/arm-gnu-toolchain-13.2.rel1-x86_64-arm-none-eabi/arm-gnu-toolchain-13.2.Rel1-x86_64-arm-none-eabi/bin/../lib/gcc/arm-none-eabi/13.2.1/../../../../arm-none-eabi/lib/thumb/v7-a/nofp/libg.a(libc_a-mprec.o)
                0x6001d4c0                __d2b
 .text.__ratio  0x6001d580       0x58 /home/mustafa/arm-gnu-toolchain-13.2.rel1-x86_64-arm-none-eabi/arm-gnu-toolchain-13.2.Rel1-x86_64-arm-none-eabi/bin/../lib/gcc/arm-none-eabi/13.2.1/../../../../arm-none-eabi/lib/thumb/v7-a/nofp/libg.a(libc_a-mprec.o)
                0x6001d580                __ratio
 .text._mprec_log10
                0x6001d5d8       0x38 /home/mustafa/arm-gnu-toolchain-13.2.rel1-x86_64-arm-none-eabi/arm-gnu-toolchain-13.2.Rel1-x86_64-arm-none-eabi/bin/../lib/gcc/arm-none-eabi/13.2.1/../../../../arm-none-eabi/lib/thumb/v7-a/nofp/libg.a(libc_a-mprec.o)
                0x6001d5d8                _mprec_log10
 .text.__copybits
                0x6001d610       0x5c /home/mustafa/arm-gnu-toolchain-13.2.rel1-x86_64-arm-none-eabi/arm-gnu-toolchain-13.2.Rel1-x86_64-arm-none-eabi/bin/../lib/gcc/arm-none-eabi/13.2.1/../../../../arm-none-eabi/lib/thumb/v7-a/nofp/libg.a(libc_a-mprec.o)
                0x6001d610                __copybits
 .text.__any_on
                0x6001d66c       0x40 /home/mustafa/arm-gnu-toolchain-13.2.rel1-x86_64-arm-none-eabi/arm-gnu-toolchain-13.2.Rel1-x86_64-arm-none-eabi/bin/../lib/gcc/arm-none-eabi/13.2.1/../../../../arm-none-eabi/lib/thumb/v7-a/nofp/libg.a(libc_a-mprec.o)
                0x6001d66c                __any_on
 .text._calloc_r
                0x6001d6ac       0x78 /home/mustafa/arm-gnu-toolchain-13.2.rel1-x86_64-arm-none-eabi/arm-gnu-toolchain-13.2.Rel1-x86_64-arm-none-eabi/bin/../lib/gcc/arm-none-eabi/13.2.1/../../../../arm-none-eabi/lib/thumb/v7-a/nofp/libg.a(libc_a-callocr.o)
                0x6001d6ac                _calloc_r
 .text._fiprintf_r
                0x6001d724       0x1c /home/mustafa/arm-gnu-toolchain-13.2.rel1-x86_64-arm-none-eabi/arm-gnu-toolchain-13.2.Rel1-x86_64-arm-none-eabi/bin/../lib/gcc/arm-none-eabi/13.2.1/../../../../arm-none-eabi/lib/thumb/v7-a/nofp/libg.a(libc_a-fiprintf.o)
                0x6001d724                _fiprintf_r
 .text.fiprintf
                0x6001d740       0x2c /home/mustafa/arm-gnu-toolchain-13.2.rel1-x86_64-arm-none-eabi/arm-gnu-toolchain-13.2.Rel1-x86_64-arm-none-eabi/bin/../lib/gcc/arm-none-eabi/13.2.1/../../../../arm-none-eabi/lib/thumb/v7-a/nofp/libg.a(libc_a-fiprintf.o)
                0x6001d740                fiprintf
 .text.abort    0x6001d76c       0x10 /home/mustafa/arm-gnu-toolchain-13.2.rel1-x86_64-arm-none-eabi/arm-gnu-toolchain-13.2.Rel1-x86_64-arm-none-eabi/bin/../lib/gcc/arm-none-eabi/13.2.1/../../../../arm-none-eabi/lib/thumb/v7-a/nofp/libg.a(libc_a-abort.o)
                0x6001d76c                abort
 .text._init_signal_r
                0x6001d77c       0x30 /home/mustafa/arm-gnu-toolchain-13.2.rel1-x86_64-arm-none-eabi/arm-gnu-toolchain-13.2.Rel1-x86_64-arm-none-eabi/bin/../lib/gcc/arm-none-eabi/13.2.1/../../../../arm-none-eabi/lib/thumb/v7-a/nofp/libg.a(libc_a-signal.o)
                0x6001d77c                _init_signal_r
 .text._signal_r
                0x6001d7ac       0x50 /home/mustafa/arm-gnu-toolchain-13.2.rel1-x86_64-arm-none-eabi/arm-gnu-toolchain-13.2.Rel1-x86_64-arm-none-eabi/bin/../lib/gcc/arm-none-eabi/13.2.1/../../../../arm-none-eabi/lib/thumb/v7-a/nofp/libg.a(libc_a-signal.o)
                0x6001d7ac                _signal_r
 .text._raise_r
                0x6001d7fc       0x54 /home/mustafa/arm-gnu-toolchain-13.2.rel1-x86_64-arm-none-eabi/arm-gnu-toolchain-13.2.Rel1-x86_64-arm-none-eabi/bin/../lib/gcc/arm-none-eabi/13.2.1/../../../../arm-none-eabi/lib/thumb/v7-a/nofp/libg.a(libc_a-signal.o)
                0x6001d7fc                _raise_r
 .text.__sigtramp_r
                0x6001d850       0x64 /home/mustafa/arm-gnu-toolchain-13.2.rel1-x86_64-arm-none-eabi/arm-gnu-toolchain-13.2.Rel1-x86_64-arm-none-eabi/bin/../lib/gcc/arm-none-eabi/13.2.1/../../../../arm-none-eabi/lib/thumb/v7-a/nofp/libg.a(libc_a-signal.o)
                0x6001d850                __sigtramp_r
 .text.raise    0x6001d8b4       0x58 /home/mustafa/arm-gnu-toolchain-13.2.rel1-x86_64-arm-none-eabi/arm-gnu-toolchain-13.2.Rel1-x86_64-arm-none-eabi/bin/../lib/gcc/arm-none-eabi/13.2.1/../../../../arm-none-eabi/lib/thumb/v7-a/nofp/libg.a(libc_a-signal.o)
                0x6001d8b4                raise
 .text.signal   0x6001d90c       0x50 /home/mustafa/arm-gnu-toolchain-13.2.rel1-x86_64-arm-none-eabi/arm-gnu-toolchain-13.2.Rel1-x86_64-arm-none-eabi/bin/../lib/gcc/arm-none-eabi/13.2.1/../../../../arm-none-eabi/lib/thumb/v7-a/nofp/libg.a(libc_a-signal.o)
                0x6001d90c                signal
 .text._init_signal
                0x6001d95c       0x3c /home/mustafa/arm-gnu-toolchain-13.2.rel1-x86_64-arm-none-eabi/arm-gnu-toolchain-13.2.Rel1-x86_64-arm-none-eabi/bin/../lib/gcc/arm-none-eabi/13.2.1/../../../../arm-none-eabi/lib/thumb/v7-a/nofp/libg.a(libc_a-signal.o)
                0x6001d95c                _init_signal
 .text.__sigtramp
                0x6001d998       0x68 /home/mustafa/arm-gnu-toolchain-13.2.rel1-x86_64-arm-none-eabi/arm-gnu-toolchain-13.2.Rel1-x86_64-arm-none-eabi/bin/../lib/gcc/arm-none-eabi/13.2.1/../../../../arm-none-eabi/lib/thumb/v7-a/nofp/libg.a(libc_a-signal.o)
                0x6001d998                __sigtramp
 .text._kill_r  0x6001da00       0x2c /home/mustafa/arm-gnu-toolchain-13.2.rel1-x86_64-arm-none-eabi/arm-gnu-toolchain-13.2.Rel1-x86_64-arm-none-eabi/bin/../lib/gcc/arm-none-eabi/13.2.1/../../../../arm-none-eabi/lib/thumb/v7-a/nofp/libg.a(libc_a-signalr.o)
                0x6001da00                _kill_r
 .text._getpid_r
                0x6001da2c        0x4 /home/mustafa/arm-gnu-toolchain-13.2.rel1-x86_64-arm-none-eabi/arm-gnu-toolchain-13.2.Rel1-x86_64-arm-none-eabi/bin/../lib/gcc/arm-none-eabi/13.2.1/../../../../arm-none-eabi/lib/thumb/v7-a/nofp/libg.a(libc_a-signalr.o)
                0x6001da2c                _getpid_r
 .text.__udivmoddi4
                0x6001da30      0x104 /home/mustafa/arm-gnu-toolchain-13.2.rel1-x86_64-arm-none-eabi/arm-gnu-toolchain-13.2.Rel1-x86_64-arm-none-eabi/bin/../lib/gcc/arm-none-eabi/13.2.1/thumb/v7-a/nofp/libgcc.a(_udivmoddi4.o)
                0x6001da30                __udivmoddi4
 .text._getpid  0x6001db34       0x14 /home/mustafa/arm-gnu-toolchain-13.2.rel1-x86_64-arm-none-eabi/arm-gnu-toolchain-13.2.Rel1-x86_64-arm-none-eabi/bin/../lib/gcc/arm-none-eabi/13.2.1/../../../../arm-none-eabi/lib/thumb/v7-a/nofp/libnosys.a(getpid.o)
                0x6001db34                _getpid
 .text._kill    0x6001db48       0x14 /home/mustafa/arm-gnu-toolchain-13.2.rel1-x86_64-arm-none-eabi/arm-gnu-toolchain-13.2.Rel1-x86_64-arm-none-eabi/bin/../lib/gcc/arm-none-eabi/13.2.1/../../../../arm-none-eabi/lib/thumb/v7-a/nofp/libnosys.a(kill.o)
                0x6001db48                _kill
 *fill*         0x6001db5c        0x4 
 .text._kill.__stub
                0x6001db60       0x12 linker stubs
 *(.rodata)
 *fill*         0x6001db72        0x2 
 .rodata        0x6001db74       0x99 obj/ff.o
 *fill*         0x6001dc0d        0x3 
 .rodata        0x6001dc10        0x8 obj/gic.o
                0x6001dc10                GICDistributor_BASE
                0x6001dc14                GICInterface_BASE
 .rodata        0x6001dc18       0x39 obj/interrupt.o
 *fill*         0x6001dc51        0x3 
 .rodata        0x6001dc54       0x7d obj/kernel.o
 *fill*         0x6001dcd1        0x3 
 .rodata        0x6001dcd4        0x4 obj/pl011.o
                0x6001dcd4                UART0
 .rodata        0x6001dcd8        0x4 obj/pl031.o
                0x6001dcd8                RTC
 .rodata        0x6001dcdc    0x15916 obj/pl041.o
                0x6001dcdc                audioSamples
                0x60033564                AACI
 *fill*         0x600335f2        0x2 
 .rodata        0x600335f4        0x4 obj/pl050.o
                0x600335f4                kmi_kb
 .rodata        0x600335f8       0x2b obj/pl181.o
                0x600335f8                MCI
 *fill*         0x60033623        0x1 
 .rodata        0x60033624       0x1f obj/sp804.o
                0x60033624                tregs
 *fill*         0x60033643        0x1 
 .rodata        0x60033644    0x1b6ea obj/ugui.o
                0x60033644                font_6x8
                0x60033e44                font_7x12
                0x60034a44                font_8x8
                0x60035244                font_8x12
                0x60035e44                font_8x14
                0x60036c44                font_10x16
                0x60038c44                font_12x16
                0x6003ac44                font_12x20
                0x6003d444                font_16x26
                0x60040844                font_22x36
                0x60047444                font_24x40
                0x6004ec44                FONT_6X8
                0x6004ec4c                FONT_7X12
                0x6004ec54                FONT_8X8
                0x6004ec5c                FONT_8X12
                0x6004ec64                FONT_8X14
                0x6004ec6c                FONT_10X16
                0x6004ec74                FONT_12X16
                0x6004ec7c                FONT_12X20
                0x6004ec84                FONT_16X26
                0x6004ec8c                FONT_22X36
                0x6004ec94                FONT_24X40
                0x6004ec9c                pal_window
                0x6004eccc                pal_button_pressed
                0x6004ecfc                pal_button_released
 *(.rodata*)
 *fill*         0x6004ed2e        0x2 
 .rodata.asctime_r.str1.4
                0x6004ed30      0x326 /home/mustafa/arm-gnu-toolchain-13.2.rel1-x86_64-arm-none-eabi/arm-gnu-toolchain-13.2.Rel1-x86_64-arm-none-eabi/bin/../lib/gcc/arm-none-eabi/13.2.1/../../../../arm-none-eabi/lib/thumb/v7-a/nofp/libg.a(libc_a-asctime_r.o)
                                 0x20 (size before relaxing)
 *fill*         0x6004f056        0x2 
 .rodata.mon_name.0
                0x6004f058       0x24 /home/mustafa/arm-gnu-toolchain-13.2.rel1-x86_64-arm-none-eabi/arm-gnu-toolchain-13.2.Rel1-x86_64-arm-none-eabi/bin/../lib/gcc/arm-none-eabi/13.2.1/../../../../arm-none-eabi/lib/thumb/v7-a/nofp/libg.a(libc_a-asctime_r.o)
 .rodata.day_name.1
                0x6004f07c       0x15 /home/mustafa/arm-gnu-toolchain-13.2.rel1-x86_64-arm-none-eabi/arm-gnu-toolchain-13.2.Rel1-x86_64-arm-none-eabi/bin/../lib/gcc/arm-none-eabi/13.2.1/../../../../arm-none-eabi/lib/thumb/v7-a/nofp/libg.a(libc_a-asctime_r.o)
 *fill*         0x6004f091        0x3 
 .rodata.__month_lengths
                0x6004f094       0x60 /home/mustafa/arm-gnu-toolchain-13.2.rel1-x86_64-arm-none-eabi/arm-gnu-toolchain-13.2.Rel1-x86_64-arm-none-eabi/bin/../lib/gcc/arm-none-eabi/13.2.1/../../../../arm-none-eabi/lib/thumb/v7-a/nofp/libg.a(libc_a-month_lengths.o)
                0x6004f094                __month_lengths
 .rodata._svfiprintf_r.str1.4
                0x6004f0f4       0x2f /home/mustafa/arm-gnu-toolchain-13.2.rel1-x86_64-arm-none-eabi/arm-gnu-toolchain-13.2.Rel1-x86_64-arm-none-eabi/bin/../lib/gcc/arm-none-eabi/13.2.1/../../../../arm-none-eabi/lib/thumb/v7-a/nofp/libg.a(libc_a-svfiprintf.o)
 .rodata.zeroes.0
                0x6004f0f4       0x10 /home/mustafa/arm-gnu-toolchain-13.2.rel1-x86_64-arm-none-eabi/arm-gnu-toolchain-13.2.Rel1-x86_64-arm-none-eabi/bin/../lib/gcc/arm-none-eabi/13.2.1/../../../../arm-none-eabi/lib/thumb/v7-a/nofp/libg.a(libc_a-svfiprintf.o)
 .rodata.blanks.1
                0x6004f104       0x10 /home/mustafa/arm-gnu-toolchain-13.2.rel1-x86_64-arm-none-eabi/arm-gnu-toolchain-13.2.Rel1-x86_64-arm-none-eabi/bin/../lib/gcc/arm-none-eabi/13.2.1/../../../../arm-none-eabi/lib/thumb/v7-a/nofp/libg.a(libc_a-svfiprintf.o)
 .rodata._tzset_unlocked_r.str1.4
                0x6004f114       0x6b /home/mustafa/arm-gnu-toolchain-13.2.rel1-x86_64-arm-none-eabi/arm-gnu-toolchain-13.2.Rel1-x86_64-arm-none-eabi/bin/../lib/gcc/arm-none-eabi/13.2.1/../../../../arm-none-eabi/lib/thumb/v7-a/nofp/libg.a(libc_a-tzset_r.o)
 .rodata.str1.4
                0x6004f114        0x4 /home/mustafa/arm-gnu-toolchain-13.2.rel1-x86_64-arm-none-eabi/arm-gnu-toolchain-13.2.Rel1-x86_64-arm-none-eabi/bin/../lib/gcc/arm-none-eabi/13.2.1/../../../../arm-none-eabi/lib/thumb/v7-a/nofp/libg.a(libc_a-tzvars.o)
 .rodata.currentlocale.str1.4
                0x6004f114        0x2 /home/mustafa/arm-gnu-toolchain-13.2.rel1-x86_64-arm-none-eabi/arm-gnu-toolchain-13.2.Rel1-x86_64-arm-none-eabi/bin/../lib/gcc/arm-none-eabi/13.2.1/../../../../arm-none-eabi/lib/thumb/v7-a/nofp/libg.a(libc_a-locale.o)
 .rodata.__loadlocale.str1.4
                0x6004f114       0xde /home/mustafa/arm-gnu-toolchain-13.2.rel1-x86_64-arm-none-eabi/arm-gnu-toolchain-13.2.Rel1-x86_64-arm-none-eabi/bin/../lib/gcc/arm-none-eabi/13.2.1/../../../../arm-none-eabi/lib/thumb/v7-a/nofp/libg.a(libc_a-locale.o)
 .rodata.__get_locale_env.str1.4
                0x6004f114        0xd /home/mustafa/arm-gnu-toolchain-13.2.rel1-x86_64-arm-none-eabi/arm-gnu-toolchain-13.2.Rel1-x86_64-arm-none-eabi/bin/../lib/gcc/arm-none-eabi/13.2.1/../../../../arm-none-eabi/lib/thumb/v7-a/nofp/libg.a(libc_a-locale.o)
 .rodata.str1.4
                0x6004f114       0x4c /home/mustafa/arm-gnu-toolchain-13.2.rel1-x86_64-arm-none-eabi/arm-gnu-toolchain-13.2.Rel1-x86_64-arm-none-eabi/bin/../lib/gcc/arm-none-eabi/13.2.1/../../../../arm-none-eabi/lib/thumb/v7-a/nofp/libg.a(libc_a-locale.o)
 .rodata.__C_locale
                0x6004f114      0x16c /home/mustafa/arm-gnu-toolchain-13.2.rel1-x86_64-arm-none-eabi/arm-gnu-toolchain-13.2.Rel1-x86_64-arm-none-eabi/bin/../lib/gcc/arm-none-eabi/13.2.1/../../../../arm-none-eabi/lib/thumb/v7-a/nofp/libg.a(libc_a-locale.o)
                0x6004f114                __C_locale
 .rodata.categories
                0x6004f280       0x1c /home/mustafa/arm-gnu-toolchain-13.2.rel1-x86_64-arm-none-eabi/arm-gnu-toolchain-13.2.Rel1-x86_64-arm-none-eabi/bin/../lib/gcc/arm-none-eabi/13.2.1/../../../../arm-none-eabi/lib/thumb/v7-a/nofp/libg.a(libc_a-locale.o)
 .rodata._puts_r.str1.4
                0x6004f29c        0x2 /home/mustafa/arm-gnu-toolchain-13.2.rel1-x86_64-arm-none-eabi/arm-gnu-toolchain-13.2.Rel1-x86_64-arm-none-eabi/bin/../lib/gcc/arm-none-eabi/13.2.1/../../../../arm-none-eabi/lib/thumb/v7-a/nofp/libg.a(libc_a-puts.o)
 .rodata._ctype_
                0x6004f29c      0x101 /home/mustafa/arm-gnu-toolchain-13.2.rel1-x86_64-arm-none-eabi/arm-gnu-toolchain-13.2.Rel1-x86_64-arm-none-eabi/bin/../lib/gcc/arm-none-eabi/13.2.1/../../../../arm-none-eabi/lib/thumb/v7-a/nofp/libg.a(libc_a-ctype_.o)
                0x6004f29c                _ctype_
 *fill*         0x6004f39d        0x3 
 .rodata.basefix.0
                0x6004f3a0       0x22 /home/mustafa/arm-gnu-toolchain-13.2.rel1-x86_64-arm-none-eabi/arm-gnu-toolchain-13.2.Rel1-x86_64-arm-none-eabi/bin/../lib/gcc/arm-none-eabi/13.2.1/../../../../arm-none-eabi/lib/thumb/v7-a/nofp/libg.a(libc_a-svfiscanf.o)
 .rodata._vfprintf_r.str1.4
                0x6004f3c2       0x42 /home/mustafa/arm-gnu-toolchain-13.2.rel1-x86_64-arm-none-eabi/arm-gnu-toolchain-13.2.Rel1-x86_64-arm-none-eabi/bin/../lib/gcc/arm-none-eabi/13.2.1/../../../../arm-none-eabi/lib/thumb/v7-a/nofp/libg.a(libc_a-vfprintf.o)
 *fill*         0x6004f3c2        0x2 
 .rodata.zeroes.0
                0x6004f3c4       0x10 /home/mustafa/arm-gnu-toolchain-13.2.rel1-x86_64-arm-none-eabi/arm-gnu-toolchain-13.2.Rel1-x86_64-arm-none-eabi/bin/../lib/gcc/arm-none-eabi/13.2.1/../../../../arm-none-eabi/lib/thumb/v7-a/nofp/libg.a(libc_a-vfprintf.o)
 .rodata.blanks.1
                0x6004f3d4       0x10 /home/mustafa/arm-gnu-toolchain-13.2.rel1-x86_64-arm-none-eabi/arm-gnu-toolchain-13.2.Rel1-x86_64-arm-none-eabi/bin/../lib/gcc/arm-none-eabi/13.2.1/../../../../arm-none-eabi/lib/thumb/v7-a/nofp/libg.a(libc_a-vfprintf.o)
 .rodata._vfiprintf_r.str1.4
                0x6004f3e4       0x2f /home/mustafa/arm-gnu-toolchain-13.2.rel1-x86_64-arm-none-eabi/arm-gnu-toolchain-13.2.Rel1-x86_64-arm-none-eabi/bin/../lib/gcc/arm-none-eabi/13.2.1/../../../../arm-none-eabi/lib/thumb/v7-a/nofp/libg.a(libc_a-vfiprintf.o)
 .rodata.zeroes.0
                0x6004f3e4       0x10 /home/mustafa/arm-gnu-toolchain-13.2.rel1-x86_64-arm-none-eabi/arm-gnu-toolchain-13.2.Rel1-x86_64-arm-none-eabi/bin/../lib/gcc/arm-none-eabi/13.2.1/../../../../arm-none-eabi/lib/thumb/v7-a/nofp/libg.a(libc_a-vfiprintf.o)
 .rodata.blanks.1
                0x6004f3f4       0x10 /home/mustafa/arm-gnu-toolchain-13.2.rel1-x86_64-arm-none-eabi/arm-gnu-toolchain-13.2.Rel1-x86_64-arm-none-eabi/bin/../lib/gcc/arm-none-eabi/13.2.1/../../../../arm-none-eabi/lib/thumb/v7-a/nofp/libg.a(libc_a-vfiprintf.o)
 .rodata.JIS_action_table
                0x6004f404       0x48 /home/mustafa/arm-gnu-toolchain-13.2.rel1-x86_64-arm-none-eabi/arm-gnu-toolchain-13.2.Rel1-x86_64-arm-none-eabi/bin/../lib/gcc/arm-none-eabi/13.2.1/../../../../arm-none-eabi/lib/thumb/v7-a/nofp/libg.a(libc_a-mbtowc_r.o)
 .rodata.JIS_state_table
                0x6004f44c       0x48 /home/mustafa/arm-gnu-toolchain-13.2.rel1-x86_64-arm-none-eabi/arm-gnu-toolchain-13.2.Rel1-x86_64-arm-none-eabi/bin/../lib/gcc/arm-none-eabi/13.2.1/../../../../arm-none-eabi/lib/thumb/v7-a/nofp/libg.a(libc_a-mbtowc_r.o)
 .rodata._mbrtowc_r.str1.4
                0x6004f494        0x1 /home/mustafa/arm-gnu-toolchain-13.2.rel1-x86_64-arm-none-eabi/arm-gnu-toolchain-13.2.Rel1-x86_64-arm-none-eabi/bin/../lib/gcc/arm-none-eabi/13.2.1/../../../../arm-none-eabi/lib/thumb/v7-a/nofp/libg.a(libc_a-mbrtowc.o)
 .rodata._dtoa_r.str1.4
                0x6004f494       0x81 /home/mustafa/arm-gnu-toolchain-13.2.rel1-x86_64-arm-none-eabi/arm-gnu-toolchain-13.2.Rel1-x86_64-arm-none-eabi/bin/../lib/gcc/arm-none-eabi/13.2.1/../../../../arm-none-eabi/lib/thumb/v7-a/nofp/libg.a(libc_a-dtoa.o)
 .rodata.categories
                0x6004f494     0x35dc /home/mustafa/arm-gnu-toolchain-13.2.rel1-x86_64-arm-none-eabi/arm-gnu-toolchain-13.2.Rel1-x86_64-arm-none-eabi/bin/../lib/gcc/arm-none-eabi/13.2.1/../../../../arm-none-eabi/lib/thumb/v7-a/nofp/libg.a(libc_a-categories.o)
 .rodata._jp2uc_l.str1.4
                0x60052a70       0x12 /home/mustafa/arm-gnu-toolchain-13.2.rel1-x86_64-arm-none-eabi/arm-gnu-toolchain-13.2.Rel1-x86_64-arm-none-eabi/bin/../lib/gcc/arm-none-eabi/13.2.1/../../../../arm-none-eabi/lib/thumb/v7-a/nofp/libg.a(libc_a-jp2uc.o)
 .rodata.d02f4  0x60052a70     0x1a7c /home/mustafa/arm-gnu-toolchain-13.2.rel1-x86_64-arm-none-eabi/arm-gnu-toolchain-13.2.Rel1-x86_64-arm-none-eabi/bin/../lib/gcc/arm-none-eabi/13.2.1/../../../../arm-none-eabi/lib/thumb/v7-a/nofp/libg.a(libc_a-jp2uc.o)
 .rodata.b02cf  0x600544ec     0x172a /home/mustafa/arm-gnu-toolchain-13.2.rel1-x86_64-arm-none-eabi/arm-gnu-toolchain-13.2.Rel1-x86_64-arm-none-eabi/bin/../lib/gcc/arm-none-eabi/13.2.1/../../../../arm-none-eabi/lib/thumb/v7-a/nofp/libg.a(libc_a-jp2uc.o)
 *fill*         0x60055c16        0x2 
 .rodata.a8     0x60055c18       0x40 /home/mustafa/arm-gnu-toolchain-13.2.rel1-x86_64-arm-none-eabi/arm-gnu-toolchain-13.2.Rel1-x86_64-arm-none-eabi/bin/../lib/gcc/arm-none-eabi/13.2.1/../../../../arm-none-eabi/lib/thumb/v7-a/nofp/libg.a(libc_a-jp2uc.o)
 .rodata.a7     0x60055c58       0xa2 /home/mustafa/arm-gnu-toolchain-13.2.rel1-x86_64-arm-none-eabi/arm-gnu-toolchain-13.2.Rel1-x86_64-arm-none-eabi/bin/../lib/gcc/arm-none-eabi/13.2.1/../../../../arm-none-eabi/lib/thumb/v7-a/nofp/libg.a(libc_a-jp2uc.o)
 *fill*         0x60055cfa        0x2 
 .rodata.a6     0x60055cfc       0x70 /home/mustafa/arm-gnu-toolchain-13.2.rel1-x86_64-arm-none-eabi/arm-gnu-toolchain-13.2.Rel1-x86_64-arm-none-eabi/bin/../lib/gcc/arm-none-eabi/13.2.1/../../../../arm-none-eabi/lib/thumb/v7-a/nofp/libg.a(libc_a-jp2uc.o)
 .rodata.a3     0x60055d6c       0x5b /home/mustafa/arm-gnu-toolchain-13.2.rel1-x86_64-arm-none-eabi/arm-gnu-toolchain-13.2.Rel1-x86_64-arm-none-eabi/bin/../lib/gcc/arm-none-eabi/13.2.1/../../../../arm-none-eabi/lib/thumb/v7-a/nofp/libg.a(libc_a-jp2uc.o)
 *fill*         0x60055dc7        0x1 
 .rodata.a2     0x60055dc8       0xbc /home/mustafa/arm-gnu-toolchain-13.2.rel1-x86_64-arm-none-eabi/arm-gnu-toolchain-13.2.Rel1-x86_64-arm-none-eabi/bin/../lib/gcc/arm-none-eabi/13.2.1/../../../../arm-none-eabi/lib/thumb/v7-a/nofp/libg.a(libc_a-jp2uc.o)
 .rodata.a1     0x60055e84       0xbc /home/mustafa/arm-gnu-toolchain-13.2.rel1-x86_64-arm-none-eabi/arm-gnu-toolchain-13.2.Rel1-x86_64-arm-none-eabi/bin/../lib/gcc/arm-none-eabi/13.2.1/../../../../arm-none-eabi/lib/thumb/v7-a/nofp/libg.a(libc_a-jp2uc.o)
 .rodata.__assert_func.str1.4
                0x60055f40       0x43 /home/mustafa/arm-gnu-toolchain-13.2.rel1-x86_64-arm-none-eabi/arm-gnu-toolchain-13.2.Rel1-x86_64-arm-none-eabi/bin/../lib/gcc/arm-none-eabi/13.2.1/../../../../arm-none-eabi/lib/thumb/v7-a/nofp/libg.a(libc_a-assert.o)
 .rodata.__multadd.str1.4
                0x60055f40       0x6e /home/mustafa/arm-gnu-toolchain-13.2.rel1-x86_64-arm-none-eabi/arm-gnu-toolchain-13.2.Rel1-x86_64-arm-none-eabi/bin/../lib/gcc/arm-none-eabi/13.2.1/../../../../arm-none-eabi/lib/thumb/v7-a/nofp/libg.a(libc_a-mprec.o)
 .rodata.p05.0  0x60055f40        0xc /home/mustafa/arm-gnu-toolchain-13.2.rel1-x86_64-arm-none-eabi/arm-gnu-toolchain-13.2.Rel1-x86_64-arm-none-eabi/bin/../lib/gcc/arm-none-eabi/13.2.1/../../../../arm-none-eabi/lib/thumb/v7-a/nofp/libg.a(libc_a-mprec.o)
 *fill*         0x60055f4c        0x4 
 .rodata.__mprec_tinytens
                0x60055f50       0x28 /home/mustafa/arm-gnu-toolchain-13.2.rel1-x86_64-arm-none-eabi/arm-gnu-toolchain-13.2.Rel1-x86_64-arm-none-eabi/bin/../lib/gcc/arm-none-eabi/13.2.1/../../../../arm-none-eabi/lib/thumb/v7-a/nofp/libg.a(libc_a-mprec.o)
                0x60055f50                __mprec_tinytens
 .rodata.__mprec_bigtens
                0x60055f78       0x28 /home/mustafa/arm-gnu-toolchain-13.2.rel1-x86_64-arm-none-eabi/arm-gnu-toolchain-13.2.Rel1-x86_64-arm-none-eabi/bin/../lib/gcc/arm-none-eabi/13.2.1/../../../../arm-none-eabi/lib/thumb/v7-a/nofp/libg.a(libc_a-mprec.o)
                0x60055f78                __mprec_bigtens
 .rodata.__mprec_tens
                0x60055fa0       0xc8 /home/mustafa/arm-gnu-toolchain-13.2.rel1-x86_64-arm-none-eabi/arm-gnu-toolchain-13.2.Rel1-x86_64-arm-none-eabi/bin/../lib/gcc/arm-none-eabi/13.2.1/../../../../arm-none-eabi/lib/thumb/v7-a/nofp/libg.a(libc_a-mprec.o)
                0x60055fa0                __mprec_tens
 *(.init)
 *(.fini)
 *crtbegin.o(.ctors)
 *crtbegin?.o(.ctors)
 *(EXCLUDE_FILE(*crtend.o *crtend?.o) .ctors)
 *(SORT_BY_NAME(.ctors.*))
 *(.ctors)
 *crtbegin.o(.dtors)
 *crtbegin?.o(.dtors)
 *(EXCLUDE_FILE(*crtend.o *crtend?.o) .dtors)
 *(SORT_BY_NAME(.dtors.*))
 *(.dtors)
 *(.eh_frame*)
 .eh_frame      0x60056068       0x50 /home/mustafa/arm-gnu-toolchain-13.2.rel1-x86_64-arm-none-eabi/arm-gnu-toolchain-13.2.Rel1-x86_64-arm-none-eabi/bin/../lib/gcc/arm-none-eabi/13.2.1/../../../../arm-none-eabi/lib/thumb/v7-a/nofp/libg.a(libc_a-memchr.o)
 .eh_frame      0x600560b8       0x34 /home/mustafa/arm-gnu-toolchain-13.2.rel1-x86_64-arm-none-eabi/arm-gnu-toolchain-13.2.Rel1-x86_64-arm-none-eabi/bin/../lib/gcc/arm-none-eabi/13.2.1/../../../../arm-none-eabi/lib/thumb/v7-a/nofp/libg.a(libc_a-strlen.o)
                0x600560f4                        _end_text = .

.glue_7         0x600560ec        0x0
 .glue_7        0x600560ec        0x0 linker stubs

.glue_7t        0x600560ec        0x0
 .glue_7t       0x600560ec        0x0 linker stubs

.vfp11_veneer   0x600560ec        0x0
 .vfp11_veneer  0x600560ec        0x0 linker stubs

.v4_bx          0x600560ec        0x0
 .v4_bx         0x600560ec        0x0 linker stubs

.iplt           0x600560ec        0x0
 .iplt          0x600560ec        0x0 obj/startup.o

.ARM.extab      0x600560ec        0x0
 *(.ARM.extab* .gnu.linkonce.armextab.*)
 .ARM.extab     0x600560ec        0x0 /home/mustafa/arm-gnu-toolchain-13.2.rel1-x86_64-arm-none-eabi/arm-gnu-toolchain-13.2.Rel1-x86_64-arm-none-eabi/bin/../lib/gcc/arm-none-eabi/13.2.1/../../../../arm-none-eabi/lib/thumb/v7-a/nofp/libg.a(libc_a-strcmp.o)
 .ARM.extab     0x600560ec        0x0 /home/mustafa/arm-gnu-toolchain-13.2.rel1-x86_64-arm-none-eabi/arm-gnu-toolchain-13.2.Rel1-x86_64-arm-none-eabi/bin/../lib/gcc/arm-none-eabi/13.2.1/../../../../arm-none-eabi/lib/thumb/v7-a/nofp/libg.a(libc_a-memchr.o)
 .ARM.extab     0x600560ec        0x0 /home/mustafa/arm-gnu-toolchain-13.2.rel1-x86_64-arm-none-eabi/arm-gnu-toolchain-13.2.Rel1-x86_64-arm-none-eabi/bin/../lib/gcc/arm-none-eabi/13.2.1/../../../../arm-none-eabi/lib/thumb/v7-a/nofp/libg.a(libc_a-strlen.o)
 .ARM.extab.text.__udivmoddi4
                0x600560ec        0x0 /home/mustafa/arm-gnu-toolchain-13.2.rel1-x86_64-arm-none-eabi/arm-gnu-toolchain-13.2.Rel1-x86_64-arm-none-eabi/bin/../lib/gcc/arm-none-eabi/13.2.1/thumb/v7-a/nofp/libgcc.a(_udivmoddi4.o)
                0x600560ec                        __exidx_start = .

.ARM.exidx      0x600560ec        0x8
 *(.ARM.exidx* .gnu.linkonce.armexidx.*)
 .ARM.exidx     0x600560ec        0x8 /home/mustafa/arm-gnu-toolchain-13.2.rel1-x86_64-arm-none-eabi/arm-gnu-toolchain-13.2.Rel1-x86_64-arm-none-eabi/bin/../lib/gcc/arm-none-eabi/13.2.1/../../../../arm-none-eabi/lib/thumb/v7-a/nofp/libg.a(libc_a-strcmp.o)
 .ARM.exidx     0x600560f4        0x0 /home/mustafa/arm-gnu-toolchain-13.2.rel1-x86_64-arm-none-eabi/arm-gnu-toolchain-13.2.Rel1-x86_64-arm-none-eabi/bin/../lib/gcc/arm-none-eabi/13.2.1/../../../../arm-none-eabi/lib/thumb/v7-a/nofp/libg.a(libc_a-memchr.o)
                                  0x8 (size before relaxing)
 .ARM.exidx     0x600560f4        0x0 /home/mustafa/arm-gnu-toolchain-13.2.rel1-x86_64-arm-none-eabi/arm-gnu-toolchain-13.2.Rel1-x86_64-arm-none-eabi/bin/../lib/gcc/arm-none-eabi/13.2.1/../../../../arm-none-eabi/lib/thumb/v7-a/nofp/libg.a(libc_a-strlen.o)
                                  0x8 (size before relaxing)
 .ARM.exidx.text.__udivmoddi4
                0x600560f4        0x0 /home/mustafa/arm-gnu-toolchain-13.2.rel1-x86_64-arm-none-eabi/arm-gnu-toolchain-13.2.Rel1-x86_64-arm-none-eabi/bin/../lib/gcc/arm-none-eabi/13.2.1/thumb/v7-a/nofp/libgcc.a(_udivmoddi4.o)
                                  0x8 (size before relaxing)
                0x600560f4                        __exidx_end = .
                0x600560f4                        _end_text = .

.rel.dyn        0x600560f4        0x0
 .rel.iplt      0x600560f4        0x0 obj/startup.o

.data           0x600560f8      0x8a8
                0x600560f8                        _start_data = .
 *(vtable)
 *(.data)
 .data          0x600560f8        0x0 obj/startup.o
 .data          0x600560f8        0x0 obj/diskio.o
 .data          0x600560f8        0x0 obj/ff.o
 .data          0x600560f8        0x0 obj/ffsystem.o
 .data          0x600560f8        0x0 obj/ffunicode.o
 .data          0x600560f8        0x0 obj/gic.o
 .data          0x600560f8        0x0 obj/interrupt.o
 .data          0x600560f8        0x0 obj/kernel.o
 .data          0x600560f8        0x0 obj/pl011.o
 .data          0x600560f8        0x0 obj/pl031.o
 .data          0x600560f8        0x0 obj/pl041.o
 .data          0x600560f8       0x80 obj/pl050.o
 .data          0x60056178        0x0 obj/pl111.o
 .data          0x60056178        0x0 obj/pl181.o
 .data          0x60056178        0x0 obj/sp804.o
 .data          0x60056178        0x0 obj/syscall.o
 .data          0x60056178        0x0 obj/ugui.o
 .data          0x60056178        0x0 /home/mustafa/arm-gnu-toolchain-13.2.rel1-x86_64-arm-none-eabi/arm-gnu-toolchain-13.2.Rel1-x86_64-arm-none-eabi/bin/../lib/gcc/arm-none-eabi/13.2.1/thumb/v7-a/nofp/libgcc.a(_udivsi3.o)
 .data          0x60056178        0x0 /home/mustafa/arm-gnu-toolchain-13.2.rel1-x86_64-arm-none-eabi/arm-gnu-toolchain-13.2.Rel1-x86_64-arm-none-eabi/bin/../lib/gcc/arm-none-eabi/13.2.1/thumb/v7-a/nofp/libgcc.a(_dvmd_tls.o)
 .data          0x60056178        0x0 /home/mustafa/arm-gnu-toolchain-13.2.rel1-x86_64-arm-none-eabi/arm-gnu-toolchain-13.2.Rel1-x86_64-arm-none-eabi/bin/../lib/gcc/arm-none-eabi/13.2.1/../../../../arm-none-eabi/lib/thumb/v7-a/nofp/libg.a(libc_a-exit.o)
 .data          0x60056178        0x0 /home/mustafa/arm-gnu-toolchain-13.2.rel1-x86_64-arm-none-eabi/arm-gnu-toolchain-13.2.Rel1-x86_64-arm-none-eabi/bin/../lib/gcc/arm-none-eabi/13.2.1/../../../../arm-none-eabi/lib/thumb/v7-a/nofp/libg.a(libc_a-asctime.o)
 .data          0x60056178        0x0 /home/mustafa/arm-gnu-toolchain-13.2.rel1-x86_64-arm-none-eabi/arm-gnu-toolchain-13.2.Rel1-x86_64-arm-none-eabi/bin/../lib/gcc/arm-none-eabi/13.2.1/../../../../arm-none-eabi/lib/thumb/v7-a/nofp/libg.a(libc_a-asctime_r.o)
 .data          0x60056178        0x0 /home/mustafa/arm-gnu-toolchain-13.2.rel1-x86_64-arm-none-eabi/arm-gnu-toolchain-13.2.Rel1-x86_64-arm-none-eabi/bin/../lib/gcc/arm-none-eabi/13.2.1/../../../../arm-none-eabi/lib/thumb/v7-a/nofp/libg.a(libc_a-gmtime.o)
 .data          0x60056178        0x0 /home/mustafa/arm-gnu-toolchain-13.2.rel1-x86_64-arm-none-eabi/arm-gnu-toolchain-13.2.Rel1-x86_64-arm-none-eabi/bin/../lib/gcc/arm-none-eabi/13.2.1/../../../../arm-none-eabi/lib/thumb/v7-a/nofp/libg.a(libc_a-gmtime_r.o)
 .data          0x60056178        0x0 /home/mustafa/arm-gnu-toolchain-13.2.rel1-x86_64-arm-none-eabi/arm-gnu-toolchain-13.2.Rel1-x86_64-arm-none-eabi/bin/../lib/gcc/arm-none-eabi/13.2.1/../../../../arm-none-eabi/lib/thumb/v7-a/nofp/libg.a(libc_a-lcltime.o)
 .data          0x60056178        0x0 /home/mustafa/arm-gnu-toolchain-13.2.rel1-x86_64-arm-none-eabi/arm-gnu-toolchain-13.2.Rel1-x86_64-arm-none-eabi/bin/../lib/gcc/arm-none-eabi/13.2.1/../../../../arm-none-eabi/lib/thumb/v7-a/nofp/libg.a(libc_a-lcltime_r.o)
 .data          0x60056178        0x0 /home/mustafa/arm-gnu-toolchain-13.2.rel1-x86_64-arm-none-eabi/arm-gnu-toolchain-13.2.Rel1-x86_64-arm-none-eabi/bin/../lib/gcc/arm-none-eabi/13.2.1/../../../../arm-none-eabi/lib/thumb/v7-a/nofp/libg.a(libc_a-month_lengths.o)
 .data          0x60056178        0x0 /home/mustafa/arm-gnu-toolchain-13.2.rel1-x86_64-arm-none-eabi/arm-gnu-toolchain-13.2.Rel1-x86_64-arm-none-eabi/bin/../lib/gcc/arm-none-eabi/13.2.1/../../../../arm-none-eabi/lib/thumb/v7-a/nofp/libg.a(libc_a-siprintf.o)
 .data          0x60056178        0x0 /home/mustafa/arm-gnu-toolchain-13.2.rel1-x86_64-arm-none-eabi/arm-gnu-toolchain-13.2.Rel1-x86_64-arm-none-eabi/bin/../lib/gcc/arm-none-eabi/13.2.1/../../../../arm-none-eabi/lib/thumb/v7-a/nofp/libg.a(libc_a-errno.o)
 .data          0x60056178        0x0 /home/mustafa/arm-gnu-toolchain-13.2.rel1-x86_64-arm-none-eabi/arm-gnu-toolchain-13.2.Rel1-x86_64-arm-none-eabi/bin/../lib/gcc/arm-none-eabi/13.2.1/../../../../arm-none-eabi/lib/thumb/v7-a/nofp/libg.a(libc_a-svfiprintf.o)
 .data          0x60056178        0x0 /home/mustafa/arm-gnu-toolchain-13.2.rel1-x86_64-arm-none-eabi/arm-gnu-toolchain-13.2.Rel1-x86_64-arm-none-eabi/bin/../lib/gcc/arm-none-eabi/13.2.1/../../../../arm-none-eabi/lib/thumb/v7-a/nofp/libg.a(libc_a-tzcalc_limits.o)
 .data          0x60056178        0x0 /home/mustafa/arm-gnu-toolchain-13.2.rel1-x86_64-arm-none-eabi/arm-gnu-toolchain-13.2.Rel1-x86_64-arm-none-eabi/bin/../lib/gcc/arm-none-eabi/13.2.1/../../../../arm-none-eabi/lib/thumb/v7-a/nofp/libg.a(libc_a-tzlock.o)
 .data          0x60056178        0x0 /home/mustafa/arm-gnu-toolchain-13.2.rel1-x86_64-arm-none-eabi/arm-gnu-toolchain-13.2.Rel1-x86_64-arm-none-eabi/bin/../lib/gcc/arm-none-eabi/13.2.1/../../../../arm-none-eabi/lib/thumb/v7-a/nofp/libg.a(libc_a-malloc.o)
 .data          0x60056178        0x0 /home/mustafa/arm-gnu-toolchain-13.2.rel1-x86_64-arm-none-eabi/arm-gnu-toolchain-13.2.Rel1-x86_64-arm-none-eabi/bin/../lib/gcc/arm-none-eabi/13.2.1/../../../../arm-none-eabi/lib/thumb/v7-a/nofp/libg.a(libc_a-mallocr.o)
 .data          0x60056178        0x0 /home/mustafa/arm-gnu-toolchain-13.2.rel1-x86_64-arm-none-eabi/arm-gnu-toolchain-13.2.Rel1-x86_64-arm-none-eabi/bin/../lib/gcc/arm-none-eabi/13.2.1/../../../../arm-none-eabi/lib/thumb/v7-a/nofp/libg.a(libc_a-__call_atexit.o)
 .data          0x60056178        0x0 /home/mustafa/arm-gnu-toolchain-13.2.rel1-x86_64-arm-none-eabi/arm-gnu-toolchain-13.2.Rel1-x86_64-arm-none-eabi/bin/../lib/gcc/arm-none-eabi/13.2.1/../../../../arm-none-eabi/lib/thumb/v7-a/nofp/libg.a(libc_a-memcmp.o)
 .data          0x60056178        0x0 /home/mustafa/arm-gnu-toolchain-13.2.rel1-x86_64-arm-none-eabi/arm-gnu-toolchain-13.2.Rel1-x86_64-arm-none-eabi/bin/../lib/gcc/arm-none-eabi/13.2.1/../../../../arm-none-eabi/lib/thumb/v7-a/nofp/libg.a(libc_a-memmove.o)
 .data          0x60056178        0x0 /home/mustafa/arm-gnu-toolchain-13.2.rel1-x86_64-arm-none-eabi/arm-gnu-toolchain-13.2.Rel1-x86_64-arm-none-eabi/bin/../lib/gcc/arm-none-eabi/13.2.1/../../../../arm-none-eabi/lib/thumb/v7-a/nofp/libg.a(libc_a-memset.o)
 .data          0x60056178        0x0 /home/mustafa/arm-gnu-toolchain-13.2.rel1-x86_64-arm-none-eabi/arm-gnu-toolchain-13.2.Rel1-x86_64-arm-none-eabi/bin/../lib/gcc/arm-none-eabi/13.2.1/../../../../arm-none-eabi/lib/thumb/v7-a/nofp/libg.a(libc_a-wcrtomb.o)
 .data          0x60056178        0x0 /home/mustafa/arm-gnu-toolchain-13.2.rel1-x86_64-arm-none-eabi/arm-gnu-toolchain-13.2.Rel1-x86_64-arm-none-eabi/bin/../lib/gcc/arm-none-eabi/13.2.1/../../../../arm-none-eabi/lib/thumb/v7-a/nofp/libg.a(libc_a-tzset.o)
 .data          0x60056178        0x0 /home/mustafa/arm-gnu-toolchain-13.2.rel1-x86_64-arm-none-eabi/arm-gnu-toolchain-13.2.Rel1-x86_64-arm-none-eabi/bin/../lib/gcc/arm-none-eabi/13.2.1/../../../../arm-none-eabi/lib/thumb/v7-a/nofp/libg.a(libc_a-tzset_r.o)
 .data          0x60056178        0x0 /home/mustafa/arm-gnu-toolchain-13.2.rel1-x86_64-arm-none-eabi/arm-gnu-toolchain-13.2.Rel1-x86_64-arm-none-eabi/bin/../lib/gcc/arm-none-eabi/13.2.1/../../../../arm-none-eabi/lib/thumb/v7-a/nofp/libg.a(libc_a-tzvars.o)
 .data          0x60056178        0x0 /home/mustafa/arm-gnu-toolchain-13.2.rel1-x86_64-arm-none-eabi/arm-gnu-toolchain-13.2.Rel1-x86_64-arm-none-eabi/bin/../lib/gcc/arm-none-eabi/13.2.1/../../../../arm-none-eabi/lib/thumb/v7-a/nofp/libg.a(libc_a-fini.o)
 .data          0x60056178        0x0 /home/mustafa/arm-gnu-toolchain-13.2.rel1-x86_64-arm-none-eabi/arm-gnu-toolchain-13.2.Rel1-x86_64-arm-none-eabi/bin/../lib/gcc/arm-none-eabi/13.2.1/../../../../arm-none-eabi/lib/thumb/v7-a/nofp/libg.a(libc_a-lock.o)
 .data          0x60056178        0x0 /home/mustafa/arm-gnu-toolchain-13.2.rel1-x86_64-arm-none-eabi/arm-gnu-toolchain-13.2.Rel1-x86_64-arm-none-eabi/bin/../lib/gcc/arm-none-eabi/13.2.1/../../../../arm-none-eabi/lib/thumb/v7-a/nofp/libg.a(libc_a-locale.o)
 .data          0x60056178        0x0 /home/mustafa/arm-gnu-toolchain-13.2.rel1-x86_64-arm-none-eabi/arm-gnu-toolchain-13.2.Rel1-x86_64-arm-none-eabi/bin/../lib/gcc/arm-none-eabi/13.2.1/../../../../arm-none-eabi/lib/thumb/v7-a/nofp/libg.a(libc_a-localeconv.o)
 .data          0x60056178        0x0 /home/mustafa/arm-gnu-toolchain-13.2.rel1-x86_64-arm-none-eabi/arm-gnu-toolchain-13.2.Rel1-x86_64-arm-none-eabi/bin/../lib/gcc/arm-none-eabi/13.2.1/../../../../arm-none-eabi/lib/thumb/v7-a/nofp/libg.a(libc_a-sysconf.o)
 .data          0x60056178        0x0 /home/mustafa/arm-gnu-toolchain-13.2.rel1-x86_64-arm-none-eabi/arm-gnu-toolchain-13.2.Rel1-x86_64-arm-none-eabi/bin/../lib/gcc/arm-none-eabi/13.2.1/../../../../arm-none-eabi/lib/thumb/v7-a/nofp/libg.a(libc_a-strcmp.o)
 .data          0x60056178        0x0 /home/mustafa/arm-gnu-toolchain-13.2.rel1-x86_64-arm-none-eabi/arm-gnu-toolchain-13.2.Rel1-x86_64-arm-none-eabi/bin/../lib/gcc/arm-none-eabi/13.2.1/../../../../arm-none-eabi/lib/thumb/v7-a/nofp/libg.a(libc_a-printf.o)
 .data          0x60056178        0x0 /home/mustafa/arm-gnu-toolchain-13.2.rel1-x86_64-arm-none-eabi/arm-gnu-toolchain-13.2.Rel1-x86_64-arm-none-eabi/bin/../lib/gcc/arm-none-eabi/13.2.1/../../../../arm-none-eabi/lib/thumb/v7-a/nofp/libg.a(libc_a-strcpy.o)
 .data          0x60056178        0x0 /home/mustafa/arm-gnu-toolchain-13.2.rel1-x86_64-arm-none-eabi/arm-gnu-toolchain-13.2.Rel1-x86_64-arm-none-eabi/bin/../lib/gcc/arm-none-eabi/13.2.1/../../../../arm-none-eabi/lib/thumb/v7-a/nofp/libg.a(libc_a-putchar.o)
 .data          0x60056178        0x0 /home/mustafa/arm-gnu-toolchain-13.2.rel1-x86_64-arm-none-eabi/arm-gnu-toolchain-13.2.Rel1-x86_64-arm-none-eabi/bin/../lib/gcc/arm-none-eabi/13.2.1/../../../../arm-none-eabi/lib/thumb/v7-a/nofp/libg.a(libc_a-puts.o)
 .data          0x60056178        0x0 /home/mustafa/arm-gnu-toolchain-13.2.rel1-x86_64-arm-none-eabi/arm-gnu-toolchain-13.2.Rel1-x86_64-arm-none-eabi/bin/../lib/gcc/arm-none-eabi/13.2.1/../../../../arm-none-eabi/lib/thumb/v7-a/nofp/libg.a(libc_a-mlock.o)
 .data          0x60056178        0x0 /home/mustafa/arm-gnu-toolchain-13.2.rel1-x86_64-arm-none-eabi/arm-gnu-toolchain-13.2.Rel1-x86_64-arm-none-eabi/bin/../lib/gcc/arm-none-eabi/13.2.1/../../../../arm-none-eabi/lib/thumb/v7-a/nofp/libg.a(libc_a-atexit.o)
 .data          0x60056178        0x0 /home/mustafa/arm-gnu-toolchain-13.2.rel1-x86_64-arm-none-eabi/arm-gnu-toolchain-13.2.Rel1-x86_64-arm-none-eabi/bin/../lib/gcc/arm-none-eabi/13.2.1/../../../../arm-none-eabi/lib/thumb/v7-a/nofp/libg.a(libc_a-strchr.o)
 .data          0x60056178        0x0 /home/mustafa/arm-gnu-toolchain-13.2.rel1-x86_64-arm-none-eabi/arm-gnu-toolchain-13.2.Rel1-x86_64-arm-none-eabi/bin/../lib/gcc/arm-none-eabi/13.2.1/../../../../arm-none-eabi/lib/thumb/v7-a/nofp/libg.a(libc_a-wcsrtombs.o)
 .data          0x60056178        0x0 /home/mustafa/arm-gnu-toolchain-13.2.rel1-x86_64-arm-none-eabi/arm-gnu-toolchain-13.2.Rel1-x86_64-arm-none-eabi/bin/../lib/gcc/arm-none-eabi/13.2.1/../../../../arm-none-eabi/lib/thumb/v7-a/nofp/libg.a(libc_a-ctype_.o)
 .data          0x60056178        0x0 /home/mustafa/arm-gnu-toolchain-13.2.rel1-x86_64-arm-none-eabi/arm-gnu-toolchain-13.2.Rel1-x86_64-arm-none-eabi/bin/../lib/gcc/arm-none-eabi/13.2.1/../../../../arm-none-eabi/lib/thumb/v7-a/nofp/libg.a(libc_a-impure.o)
 .data          0x60056178        0x0 /home/mustafa/arm-gnu-toolchain-13.2.rel1-x86_64-arm-none-eabi/arm-gnu-toolchain-13.2.Rel1-x86_64-arm-none-eabi/bin/../lib/gcc/arm-none-eabi/13.2.1/../../../../arm-none-eabi/lib/thumb/v7-a/nofp/libg.a(libc_a-findfp.o)
 .data          0x60056178        0x0 /home/mustafa/arm-gnu-toolchain-13.2.rel1-x86_64-arm-none-eabi/arm-gnu-toolchain-13.2.Rel1-x86_64-arm-none-eabi/bin/../lib/gcc/arm-none-eabi/13.2.1/../../../../arm-none-eabi/lib/thumb/v7-a/nofp/libg.a(libc_a-memchr.o)
 .data          0x60056178        0x0 /home/mustafa/arm-gnu-toolchain-13.2.rel1-x86_64-arm-none-eabi/arm-gnu-toolchain-13.2.Rel1-x86_64-arm-none-eabi/bin/../lib/gcc/arm-none-eabi/13.2.1/../../../../arm-none-eabi/lib/thumb/v7-a/nofp/libg.a(libc_a-memcpy.o)
 .data          0x60056178        0x0 /home/mustafa/arm-gnu-toolchain-13.2.rel1-x86_64-arm-none-eabi/arm-gnu-toolchain-13.2.Rel1-x86_64-arm-none-eabi/bin/../lib/gcc/arm-none-eabi/13.2.1/../../../../arm-none-eabi/lib/thumb/v7-a/nofp/libg.a(libc_a-reallocr.o)
 .data          0x60056178        0x0 /home/mustafa/arm-gnu-toolchain-13.2.rel1-x86_64-arm-none-eabi/arm-gnu-toolchain-13.2.Rel1-x86_64-arm-none-eabi/bin/../lib/gcc/arm-none-eabi/13.2.1/../../../../arm-none-eabi/lib/thumb/v7-a/nofp/libg.a(libc_a-strlcpy.o)
 .data          0x60056178        0x0 /home/mustafa/arm-gnu-toolchain-13.2.rel1-x86_64-arm-none-eabi/arm-gnu-toolchain-13.2.Rel1-x86_64-arm-none-eabi/bin/../lib/gcc/arm-none-eabi/13.2.1/../../../../arm-none-eabi/lib/thumb/v7-a/nofp/libg.a(libc_a-freer.o)
 .data          0x60056178        0x0 /home/mustafa/arm-gnu-toolchain-13.2.rel1-x86_64-arm-none-eabi/arm-gnu-toolchain-13.2.Rel1-x86_64-arm-none-eabi/bin/../lib/gcc/arm-none-eabi/13.2.1/../../../../arm-none-eabi/lib/thumb/v7-a/nofp/libg.a(libc_a-strtol.o)
 .data          0x60056178        0x0 /home/mustafa/arm-gnu-toolchain-13.2.rel1-x86_64-arm-none-eabi/arm-gnu-toolchain-13.2.Rel1-x86_64-arm-none-eabi/bin/../lib/gcc/arm-none-eabi/13.2.1/../../../../arm-none-eabi/lib/thumb/v7-a/nofp/libg.a(libc_a-strtoul.o)
 .data          0x60056178        0x0 /home/mustafa/arm-gnu-toolchain-13.2.rel1-x86_64-arm-none-eabi/arm-gnu-toolchain-13.2.Rel1-x86_64-arm-none-eabi/bin/../lib/gcc/arm-none-eabi/13.2.1/../../../../arm-none-eabi/lib/thumb/v7-a/nofp/libg.a(libc_a-strncasecmp.o)
 .data          0x60056178        0x0 /home/mustafa/arm-gnu-toolchain-13.2.rel1-x86_64-arm-none-eabi/arm-gnu-toolchain-13.2.Rel1-x86_64-arm-none-eabi/bin/../lib/gcc/arm-none-eabi/13.2.1/../../../../arm-none-eabi/lib/thumb/v7-a/nofp/libg.a(libc_a-getenv_r.o)
 .data          0x60056178        0x0 /home/mustafa/arm-gnu-toolchain-13.2.rel1-x86_64-arm-none-eabi/arm-gnu-toolchain-13.2.Rel1-x86_64-arm-none-eabi/bin/../lib/gcc/arm-none-eabi/13.2.1/../../../../arm-none-eabi/lib/thumb/v7-a/nofp/libg.a(libc_a-strncpy.o)
 .data          0x60056178        0x0 /home/mustafa/arm-gnu-toolchain-13.2.rel1-x86_64-arm-none-eabi/arm-gnu-toolchain-13.2.Rel1-x86_64-arm-none-eabi/bin/../lib/gcc/arm-none-eabi/13.2.1/../../../../arm-none-eabi/lib/thumb/v7-a/nofp/libg.a(libc_a-gettzinfo.o)
 .data          0x60056178        0x0 /home/mustafa/arm-gnu-toolchain-13.2.rel1-x86_64-arm-none-eabi/arm-gnu-toolchain-13.2.Rel1-x86_64-arm-none-eabi/bin/../lib/gcc/arm-none-eabi/13.2.1/../../../../arm-none-eabi/lib/thumb/v7-a/nofp/libg.a(libc_a-strlen.o)
 .data          0x60056178        0x0 /home/mustafa/arm-gnu-toolchain-13.2.rel1-x86_64-arm-none-eabi/arm-gnu-toolchain-13.2.Rel1-x86_64-arm-none-eabi/bin/../lib/gcc/arm-none-eabi/13.2.1/../../../../arm-none-eabi/lib/thumb/v7-a/nofp/libg.a(libc_a-stdio.o)
 .data          0x60056178        0x0 /home/mustafa/arm-gnu-toolchain-13.2.rel1-x86_64-arm-none-eabi/arm-gnu-toolchain-13.2.Rel1-x86_64-arm-none-eabi/bin/../lib/gcc/arm-none-eabi/13.2.1/../../../../arm-none-eabi/lib/thumb/v7-a/nofp/libg.a(libc_a-wctomb_r.o)
 .data          0x60056178        0x0 /home/mustafa/arm-gnu-toolchain-13.2.rel1-x86_64-arm-none-eabi/arm-gnu-toolchain-13.2.Rel1-x86_64-arm-none-eabi/bin/../lib/gcc/arm-none-eabi/13.2.1/../../../../arm-none-eabi/lib/thumb/v7-a/nofp/libg.a(libc_a-sbrkr.o)
 .data          0x60056178        0x0 /home/mustafa/arm-gnu-toolchain-13.2.rel1-x86_64-arm-none-eabi/arm-gnu-toolchain-13.2.Rel1-x86_64-arm-none-eabi/bin/../lib/gcc/arm-none-eabi/13.2.1/../../../../arm-none-eabi/lib/thumb/v7-a/nofp/libg.a(libc_a-fvwrite.o)
 .data          0x60056178        0x0 /home/mustafa/arm-gnu-toolchain-13.2.rel1-x86_64-arm-none-eabi/arm-gnu-toolchain-13.2.Rel1-x86_64-arm-none-eabi/bin/../lib/gcc/arm-none-eabi/13.2.1/../../../../arm-none-eabi/lib/thumb/v7-a/nofp/libg.a(libc_a-fwalk.o)
 .data          0x60056178        0x0 /home/mustafa/arm-gnu-toolchain-13.2.rel1-x86_64-arm-none-eabi/arm-gnu-toolchain-13.2.Rel1-x86_64-arm-none-eabi/bin/../lib/gcc/arm-none-eabi/13.2.1/../../../../arm-none-eabi/lib/thumb/v7-a/nofp/libg.a(libc_a-writer.o)
 .data          0x60056178        0x0 /home/mustafa/arm-gnu-toolchain-13.2.rel1-x86_64-arm-none-eabi/arm-gnu-toolchain-13.2.Rel1-x86_64-arm-none-eabi/bin/../lib/gcc/arm-none-eabi/13.2.1/../../../../arm-none-eabi/lib/thumb/v7-a/nofp/libg.a(libc_a-siscanf.o)
 .data          0x60056178        0x0 /home/mustafa/arm-gnu-toolchain-13.2.rel1-x86_64-arm-none-eabi/arm-gnu-toolchain-13.2.Rel1-x86_64-arm-none-eabi/bin/../lib/gcc/arm-none-eabi/13.2.1/../../../../arm-none-eabi/lib/thumb/v7-a/nofp/libg.a(libc_a-svfiscanf.o)
 .data          0x60056178        0x0 /home/mustafa/arm-gnu-toolchain-13.2.rel1-x86_64-arm-none-eabi/arm-gnu-toolchain-13.2.Rel1-x86_64-arm-none-eabi/bin/../lib/gcc/arm-none-eabi/13.2.1/../../../../arm-none-eabi/lib/thumb/v7-a/nofp/libg.a(libc_a-vfprintf.o)
 .data          0x60056178        0x0 /home/mustafa/arm-gnu-toolchain-13.2.rel1-x86_64-arm-none-eabi/arm-gnu-toolchain-13.2.Rel1-x86_64-arm-none-eabi/bin/../lib/gcc/arm-none-eabi/13.2.1/../../../../arm-none-eabi/lib/thumb/v7-a/nofp/libg.a(libc_a-vfiprintf.o)
 .data          0x60056178        0x0 /home/mustafa/arm-gnu-toolchain-13.2.rel1-x86_64-arm-none-eabi/arm-gnu-toolchain-13.2.Rel1-x86_64-arm-none-eabi/bin/../lib/gcc/arm-none-eabi/13.2.1/../../../../arm-none-eabi/lib/thumb/v7-a/nofp/libg.a(libc_a-__atexit.o)
 .data          0x60056178        0x0 /home/mustafa/arm-gnu-toolchain-13.2.rel1-x86_64-arm-none-eabi/arm-gnu-toolchain-13.2.Rel1-x86_64-arm-none-eabi/bin/../lib/gcc/arm-none-eabi/13.2.1/../../../../arm-none-eabi/lib/thumb/v7-a/nofp/libg.a(libc_a-mbtowc_r.o)
 .data          0x60056178        0x0 /home/mustafa/arm-gnu-toolchain-13.2.rel1-x86_64-arm-none-eabi/arm-gnu-toolchain-13.2.Rel1-x86_64-arm-none-eabi/bin/../lib/gcc/arm-none-eabi/13.2.1/../../../../arm-none-eabi/lib/thumb/v7-a/nofp/libg.a(libc_a-mbrtowc.o)
 .data          0x60056178        0x0 /home/mustafa/arm-gnu-toolchain-13.2.rel1-x86_64-arm-none-eabi/arm-gnu-toolchain-13.2.Rel1-x86_64-arm-none-eabi/bin/../lib/gcc/arm-none-eabi/13.2.1/../../../../arm-none-eabi/lib/thumb/v7-a/nofp/libg.a(libc_a-strcasecmp.o)
 .data          0x60056178        0x0 /home/mustafa/arm-gnu-toolchain-13.2.rel1-x86_64-arm-none-eabi/arm-gnu-toolchain-13.2.Rel1-x86_64-arm-none-eabi/bin/../lib/gcc/arm-none-eabi/13.2.1/../../../../arm-none-eabi/lib/thumb/v7-a/nofp/libg.a(libc_a-strcat.o)
 .data          0x60056178        0x0 /home/mustafa/arm-gnu-toolchain-13.2.rel1-x86_64-arm-none-eabi/arm-gnu-toolchain-13.2.Rel1-x86_64-arm-none-eabi/bin/../lib/gcc/arm-none-eabi/13.2.1/../../../../arm-none-eabi/lib/thumb/v7-a/nofp/libg.a(libc_a-fclose.o)
 .data          0x60056178        0x0 /home/mustafa/arm-gnu-toolchain-13.2.rel1-x86_64-arm-none-eabi/arm-gnu-toolchain-13.2.Rel1-x86_64-arm-none-eabi/bin/../lib/gcc/arm-none-eabi/13.2.1/../../../../arm-none-eabi/lib/thumb/v7-a/nofp/libg.a(libc_a-wsetup.o)
 .data          0x60056178        0x0 /home/mustafa/arm-gnu-toolchain-13.2.rel1-x86_64-arm-none-eabi/arm-gnu-toolchain-13.2.Rel1-x86_64-arm-none-eabi/bin/../lib/gcc/arm-none-eabi/13.2.1/../../../../arm-none-eabi/lib/thumb/v7-a/nofp/libg.a(libc_a-makebuf.o)
 .data          0x60056178        0x0 /home/mustafa/arm-gnu-toolchain-13.2.rel1-x86_64-arm-none-eabi/arm-gnu-toolchain-13.2.Rel1-x86_64-arm-none-eabi/bin/../lib/gcc/arm-none-eabi/13.2.1/../../../../arm-none-eabi/lib/thumb/v7-a/nofp/libg.a(libc_a-putc.o)
 .data          0x60056178        0x0 /home/mustafa/arm-gnu-toolchain-13.2.rel1-x86_64-arm-none-eabi/arm-gnu-toolchain-13.2.Rel1-x86_64-arm-none-eabi/bin/../lib/gcc/arm-none-eabi/13.2.1/../../../../arm-none-eabi/lib/thumb/v7-a/nofp/libg.a(libc_a-wcsnrtombs.o)
 .data          0x60056178        0x0 /home/mustafa/arm-gnu-toolchain-13.2.rel1-x86_64-arm-none-eabi/arm-gnu-toolchain-13.2.Rel1-x86_64-arm-none-eabi/bin/../lib/gcc/arm-none-eabi/13.2.1/../../../../arm-none-eabi/lib/thumb/v7-a/nofp/libg.a(libc_a-realloc.o)
 .data          0x60056178        0x0 /home/mustafa/arm-gnu-toolchain-13.2.rel1-x86_64-arm-none-eabi/arm-gnu-toolchain-13.2.Rel1-x86_64-arm-none-eabi/bin/../lib/gcc/arm-none-eabi/13.2.1/../../../../arm-none-eabi/lib/thumb/v7-a/nofp/libg.a(libc_a-dtoa.o)
 .data          0x60056178        0x0 /home/mustafa/arm-gnu-toolchain-13.2.rel1-x86_64-arm-none-eabi/arm-gnu-toolchain-13.2.Rel1-x86_64-arm-none-eabi/bin/../lib/gcc/arm-none-eabi/13.2.1/../../../../arm-none-eabi/lib/thumb/v7-a/nofp/libg.a(libc_a-closer.o)
 .data          0x60056178        0x0 /home/mustafa/arm-gnu-toolchain-13.2.rel1-x86_64-arm-none-eabi/arm-gnu-toolchain-13.2.Rel1-x86_64-arm-none-eabi/bin/../lib/gcc/arm-none-eabi/13.2.1/../../../../arm-none-eabi/lib/thumb/v7-a/nofp/libg.a(libc_a-reent.o)
 .data          0x60056178        0x0 /home/mustafa/arm-gnu-toolchain-13.2.rel1-x86_64-arm-none-eabi/arm-gnu-toolchain-13.2.Rel1-x86_64-arm-none-eabi/bin/../lib/gcc/arm-none-eabi/13.2.1/../../../../arm-none-eabi/lib/thumb/v7-a/nofp/libg.a(libc_a-fflush.o)
 .data          0x60056178        0x0 /home/mustafa/arm-gnu-toolchain-13.2.rel1-x86_64-arm-none-eabi/arm-gnu-toolchain-13.2.Rel1-x86_64-arm-none-eabi/bin/../lib/gcc/arm-none-eabi/13.2.1/../../../../arm-none-eabi/lib/thumb/v7-a/nofp/libg.a(libc_a-sccl.o)
 .data          0x60056178        0x0 /home/mustafa/arm-gnu-toolchain-13.2.rel1-x86_64-arm-none-eabi/arm-gnu-toolchain-13.2.Rel1-x86_64-arm-none-eabi/bin/../lib/gcc/arm-none-eabi/13.2.1/../../../../arm-none-eabi/lib/thumb/v7-a/nofp/libg.a(libm_a-s_frexp.o)
 .data          0x60056178        0x0 /home/mustafa/arm-gnu-toolchain-13.2.rel1-x86_64-arm-none-eabi/arm-gnu-toolchain-13.2.Rel1-x86_64-arm-none-eabi/bin/../lib/gcc/arm-none-eabi/13.2.1/../../../../arm-none-eabi/lib/thumb/v7-a/nofp/libg.a(libc_a-environ.o)
 .data          0x60056178        0x0 /home/mustafa/arm-gnu-toolchain-13.2.rel1-x86_64-arm-none-eabi/arm-gnu-toolchain-13.2.Rel1-x86_64-arm-none-eabi/bin/../lib/gcc/arm-none-eabi/13.2.1/../../../../arm-none-eabi/lib/thumb/v7-a/nofp/libg.a(libc_a-envlock.o)
 .data          0x60056178        0x0 /home/mustafa/arm-gnu-toolchain-13.2.rel1-x86_64-arm-none-eabi/arm-gnu-toolchain-13.2.Rel1-x86_64-arm-none-eabi/bin/../lib/gcc/arm-none-eabi/13.2.1/../../../../arm-none-eabi/lib/thumb/v7-a/nofp/libg.a(libc_a-strncmp.o)
 .data          0x60056178        0x0 /home/mustafa/arm-gnu-toolchain-13.2.rel1-x86_64-arm-none-eabi/arm-gnu-toolchain-13.2.Rel1-x86_64-arm-none-eabi/bin/../lib/gcc/arm-none-eabi/13.2.1/../../../../arm-none-eabi/lib/thumb/v7-a/nofp/libg.a(libc_a-strtoll.o)
 .data          0x60056178        0x0 /home/mustafa/arm-gnu-toolchain-13.2.rel1-x86_64-arm-none-eabi/arm-gnu-toolchain-13.2.Rel1-x86_64-arm-none-eabi/bin/../lib/gcc/arm-none-eabi/13.2.1/../../../../arm-none-eabi/lib/thumb/v7-a/nofp/libg.a(libc_a-strtoull.o)
 .data          0x60056178        0x0 /home/mustafa/arm-gnu-toolchain-13.2.rel1-x86_64-arm-none-eabi/arm-gnu-toolchain-13.2.Rel1-x86_64-arm-none-eabi/bin/../lib/gcc/arm-none-eabi/13.2.1/../../../../arm-none-eabi/lib/thumb/v7-a/nofp/libg.a(libc_a-fstatr.o)
 .data          0x60056178        0x0 /home/mustafa/arm-gnu-toolchain-13.2.rel1-x86_64-arm-none-eabi/arm-gnu-toolchain-13.2.Rel1-x86_64-arm-none-eabi/bin/../lib/gcc/arm-none-eabi/13.2.1/../../../../arm-none-eabi/lib/thumb/v7-a/nofp/libg.a(libc_a-isattyr.o)
 .data          0x60056178        0x0 /home/mustafa/arm-gnu-toolchain-13.2.rel1-x86_64-arm-none-eabi/arm-gnu-toolchain-13.2.Rel1-x86_64-arm-none-eabi/bin/../lib/gcc/arm-none-eabi/13.2.1/../../../../arm-none-eabi/lib/thumb/v7-a/nofp/libg.a(libc_a-lseekr.o)
 .data          0x60056178        0x0 /home/mustafa/arm-gnu-toolchain-13.2.rel1-x86_64-arm-none-eabi/arm-gnu-toolchain-13.2.Rel1-x86_64-arm-none-eabi/bin/../lib/gcc/arm-none-eabi/13.2.1/../../../../arm-none-eabi/lib/thumb/v7-a/nofp/libg.a(libc_a-readr.o)
 .data          0x60056178        0x0 /home/mustafa/arm-gnu-toolchain-13.2.rel1-x86_64-arm-none-eabi/arm-gnu-toolchain-13.2.Rel1-x86_64-arm-none-eabi/bin/../lib/gcc/arm-none-eabi/13.2.1/../../../../arm-none-eabi/lib/thumb/v7-a/nofp/libg.a(libc_a-iswspace.o)
 .data          0x60056178        0x0 /home/mustafa/arm-gnu-toolchain-13.2.rel1-x86_64-arm-none-eabi/arm-gnu-toolchain-13.2.Rel1-x86_64-arm-none-eabi/bin/../lib/gcc/arm-none-eabi/13.2.1/../../../../arm-none-eabi/lib/thumb/v7-a/nofp/libg.a(libc_a-iswspace_l.o)
 .data          0x60056178        0x0 /home/mustafa/arm-gnu-toolchain-13.2.rel1-x86_64-arm-none-eabi/arm-gnu-toolchain-13.2.Rel1-x86_64-arm-none-eabi/bin/../lib/gcc/arm-none-eabi/13.2.1/../../../../arm-none-eabi/lib/thumb/v7-a/nofp/libg.a(libc_a-fputwc.o)
 .data          0x60056178        0x0 /home/mustafa/arm-gnu-toolchain-13.2.rel1-x86_64-arm-none-eabi/arm-gnu-toolchain-13.2.Rel1-x86_64-arm-none-eabi/bin/../lib/gcc/arm-none-eabi/13.2.1/../../../../arm-none-eabi/lib/thumb/v7-a/nofp/libg.a(libc_a-ungetc.o)
 .data          0x60056178        0x0 /home/mustafa/arm-gnu-toolchain-13.2.rel1-x86_64-arm-none-eabi/arm-gnu-toolchain-13.2.Rel1-x86_64-arm-none-eabi/bin/../lib/gcc/arm-none-eabi/13.2.1/../../../../arm-none-eabi/lib/thumb/v7-a/nofp/libg.a(libc_a-categories.o)
 .data          0x60056178        0x0 /home/mustafa/arm-gnu-toolchain-13.2.rel1-x86_64-arm-none-eabi/arm-gnu-toolchain-13.2.Rel1-x86_64-arm-none-eabi/bin/../lib/gcc/arm-none-eabi/13.2.1/../../../../arm-none-eabi/lib/thumb/v7-a/nofp/libg.a(libc_a-jp2uc.o)
 .data          0x60056178        0x0 /home/mustafa/arm-gnu-toolchain-13.2.rel1-x86_64-arm-none-eabi/arm-gnu-toolchain-13.2.Rel1-x86_64-arm-none-eabi/bin/../lib/gcc/arm-none-eabi/13.2.1/../../../../arm-none-eabi/lib/thumb/v7-a/nofp/libg.a(libc_a-wbuf.o)
 .data          0x60056178        0x0 /home/mustafa/arm-gnu-toolchain-13.2.rel1-x86_64-arm-none-eabi/arm-gnu-toolchain-13.2.Rel1-x86_64-arm-none-eabi/bin/../lib/gcc/arm-none-eabi/13.2.1/../../../../arm-none-eabi/lib/thumb/v7-a/nofp/libg.a(libc_a-assert.o)
 .data          0x60056178        0x0 /home/mustafa/arm-gnu-toolchain-13.2.rel1-x86_64-arm-none-eabi/arm-gnu-toolchain-13.2.Rel1-x86_64-arm-none-eabi/bin/../lib/gcc/arm-none-eabi/13.2.1/../../../../arm-none-eabi/lib/thumb/v7-a/nofp/libg.a(libc_a-mprec.o)
 .data          0x60056178        0x0 /home/mustafa/arm-gnu-toolchain-13.2.rel1-x86_64-arm-none-eabi/arm-gnu-toolchain-13.2.Rel1-x86_64-arm-none-eabi/bin/../lib/gcc/arm-none-eabi/13.2.1/../../../../arm-none-eabi/lib/thumb/v7-a/nofp/libg.a(libc_a-callocr.o)
 .data          0x60056178        0x0 /home/mustafa/arm-gnu-toolchain-13.2.rel1-x86_64-arm-none-eabi/arm-gnu-toolchain-13.2.Rel1-x86_64-arm-none-eabi/bin/../lib/gcc/arm-none-eabi/13.2.1/../../../../arm-none-eabi/lib/thumb/v7-a/nofp/libg.a(libc_a-fiprintf.o)
 .data          0x60056178        0x0 /home/mustafa/arm-gnu-toolchain-13.2.rel1-x86_64-arm-none-eabi/arm-gnu-toolchain-13.2.Rel1-x86_64-arm-none-eabi/bin/../lib/gcc/arm-none-eabi/13.2.1/../../../../arm-none-eabi/lib/thumb/v7-a/nofp/libg.a(libc_a-abort.o)
 .data          0x60056178        0x0 /home/mustafa/arm-gnu-toolchain-13.2.rel1-x86_64-arm-none-eabi/arm-gnu-toolchain-13.2.Rel1-x86_64-arm-none-eabi/bin/../lib/gcc/arm-none-eabi/13.2.1/../../../../arm-none-eabi/lib/thumb/v7-a/nofp/libg.a(libc_a-signal.o)
 .data          0x60056178        0x0 /home/mustafa/arm-gnu-toolchain-13.2.rel1-x86_64-arm-none-eabi/arm-gnu-toolchain-13.2.Rel1-x86_64-arm-none-eabi/bin/../lib/gcc/arm-none-eabi/13.2.1/../../../../arm-none-eabi/lib/thumb/v7-a/nofp/libg.a(libc_a-signalr.o)
 .data          0x60056178        0x0 /home/mustafa/arm-gnu-toolchain-13.2.rel1-x86_64-arm-none-eabi/arm-gnu-toolchain-13.2.Rel1-x86_64-arm-none-eabi/bin/../lib/gcc/arm-none-eabi/13.2.1/thumb/v7-a/nofp/libgcc.a(_arm_muldf3.o)
 .data          0x60056178        0x0 /home/mustafa/arm-gnu-toolchain-13.2.rel1-x86_64-arm-none-eabi/arm-gnu-toolchain-13.2.Rel1-x86_64-arm-none-eabi/bin/../lib/gcc/arm-none-eabi/13.2.1/thumb/v7-a/nofp/libgcc.a(_divsi3.o)
 .data          0x60056178        0x0 /home/mustafa/arm-gnu-toolchain-13.2.rel1-x86_64-arm-none-eabi/arm-gnu-toolchain-13.2.Rel1-x86_64-arm-none-eabi/bin/../lib/gcc/arm-none-eabi/13.2.1/thumb/v7-a/nofp/libgcc.a(_arm_addsubdf3.o)
 .data          0x60056178        0x0 /home/mustafa/arm-gnu-toolchain-13.2.rel1-x86_64-arm-none-eabi/arm-gnu-toolchain-13.2.Rel1-x86_64-arm-none-eabi/bin/../lib/gcc/arm-none-eabi/13.2.1/thumb/v7-a/nofp/libgcc.a(_arm_muldivdf3.o)
 .data          0x60056178        0x0 /home/mustafa/arm-gnu-toolchain-13.2.rel1-x86_64-arm-none-eabi/arm-gnu-toolchain-13.2.Rel1-x86_64-arm-none-eabi/bin/../lib/gcc/arm-none-eabi/13.2.1/thumb/v7-a/nofp/libgcc.a(_arm_cmpdf2.o)
 .data          0x60056178        0x0 /home/mustafa/arm-gnu-toolchain-13.2.rel1-x86_64-arm-none-eabi/arm-gnu-toolchain-13.2.Rel1-x86_64-arm-none-eabi/bin/../lib/gcc/arm-none-eabi/13.2.1/thumb/v7-a/nofp/libgcc.a(_arm_unorddf2.o)
 .data          0x60056178        0x0 /home/mustafa/arm-gnu-toolchain-13.2.rel1-x86_64-arm-none-eabi/arm-gnu-toolchain-13.2.Rel1-x86_64-arm-none-eabi/bin/../lib/gcc/arm-none-eabi/13.2.1/thumb/v7-a/nofp/libgcc.a(_arm_fixdfsi.o)
 .data          0x60056178        0x0 /home/mustafa/arm-gnu-toolchain-13.2.rel1-x86_64-arm-none-eabi/arm-gnu-toolchain-13.2.Rel1-x86_64-arm-none-eabi/bin/../lib/gcc/arm-none-eabi/13.2.1/thumb/v7-a/nofp/libgcc.a(_aeabi_ldivmod.o)
 .data          0x60056178        0x0 /home/mustafa/arm-gnu-toolchain-13.2.rel1-x86_64-arm-none-eabi/arm-gnu-toolchain-13.2.Rel1-x86_64-arm-none-eabi/bin/../lib/gcc/arm-none-eabi/13.2.1/thumb/v7-a/nofp/libgcc.a(_aeabi_uldivmod.o)
 .data          0x60056178        0x0 /home/mustafa/arm-gnu-toolchain-13.2.rel1-x86_64-arm-none-eabi/arm-gnu-toolchain-13.2.Rel1-x86_64-arm-none-eabi/bin/../lib/gcc/arm-none-eabi/13.2.1/thumb/v7-a/nofp/libgcc.a(_udivmoddi4.o)
 .data          0x60056178        0x0 /home/mustafa/arm-gnu-toolchain-13.2.rel1-x86_64-arm-none-eabi/arm-gnu-toolchain-13.2.Rel1-x86_64-arm-none-eabi/bin/../lib/gcc/arm-none-eabi/13.2.1/../../../../arm-none-eabi/lib/thumb/v7-a/nofp/libnosys.a(getpid.o)
 .data          0x60056178        0x0 /home/mustafa/arm-gnu-toolchain-13.2.rel1-x86_64-arm-none-eabi/arm-gnu-toolchain-13.2.Rel1-x86_64-arm-none-eabi/bin/../lib/gcc/arm-none-eabi/13.2.1/../../../../arm-none-eabi/lib/thumb/v7-a/nofp/libnosys.a(kill.o)
 *(.data*)
 .data.__malloc_sbrk_base
                0x60056178        0x4 /home/mustafa/arm-gnu-toolchain-13.2.rel1-x86_64-arm-none-eabi/arm-gnu-toolchain-13.2.Rel1-x86_64-arm-none-eabi/bin/../lib/gcc/arm-none-eabi/13.2.1/../../../../arm-none-eabi/lib/thumb/v7-a/nofp/libg.a(libc_a-mallocr.o)
                0x60056178                __malloc_sbrk_base
 .data.__malloc_trim_threshold
                0x6005617c        0x4 /home/mustafa/arm-gnu-toolchain-13.2.rel1-x86_64-arm-none-eabi/arm-gnu-toolchain-13.2.Rel1-x86_64-arm-none-eabi/bin/../lib/gcc/arm-none-eabi/13.2.1/../../../../arm-none-eabi/lib/thumb/v7-a/nofp/libg.a(libc_a-mallocr.o)
                0x6005617c                __malloc_trim_threshold
 .data.__malloc_av_
                0x60056180      0x408 /home/mustafa/arm-gnu-toolchain-13.2.rel1-x86_64-arm-none-eabi/arm-gnu-toolchain-13.2.Rel1-x86_64-arm-none-eabi/bin/../lib/gcc/arm-none-eabi/13.2.1/../../../../arm-none-eabi/lib/thumb/v7-a/nofp/libg.a(libc_a-mallocr.o)
                0x60056180                __malloc_av_
 .data.__atexit_recursive_mutex
                0x60056588        0x4 /home/mustafa/arm-gnu-toolchain-13.2.rel1-x86_64-arm-none-eabi/arm-gnu-toolchain-13.2.Rel1-x86_64-arm-none-eabi/bin/../lib/gcc/arm-none-eabi/13.2.1/../../../../arm-none-eabi/lib/thumb/v7-a/nofp/libg.a(libc_a-__call_atexit.o)
                0x60056588                __atexit_recursive_mutex
 .data._tzname  0x6005658c        0x8 /home/mustafa/arm-gnu-toolchain-13.2.rel1-x86_64-arm-none-eabi/arm-gnu-toolchain-13.2.Rel1-x86_64-arm-none-eabi/bin/../lib/gcc/arm-none-eabi/13.2.1/../../../../arm-none-eabi/lib/thumb/v7-a/nofp/libg.a(libc_a-tzvars.o)
                0x6005658c                _tzname
 .data.global_locale_string
                0x60056594       0xe7 /home/mustafa/arm-gnu-toolchain-13.2.rel1-x86_64-arm-none-eabi/arm-gnu-toolchain-13.2.Rel1-x86_64-arm-none-eabi/bin/../lib/gcc/arm-none-eabi/13.2.1/../../../../arm-none-eabi/lib/thumb/v7-a/nofp/libg.a(libc_a-locale.o)
 *fill*         0x6005667b        0x1 
 .data.__global_locale
                0x6005667c      0x16c /home/mustafa/arm-gnu-toolchain-13.2.rel1-x86_64-arm-none-eabi/arm-gnu-toolchain-13.2.Rel1-x86_64-arm-none-eabi/bin/../lib/gcc/arm-none-eabi/13.2.1/../../../../arm-none-eabi/lib/thumb/v7-a/nofp/libg.a(libc_a-locale.o)
                0x6005667c                __global_locale
 .data.__default_locale
                0x600567e8       0x20 /home/mustafa/arm-gnu-toolchain-13.2.rel1-x86_64-arm-none-eabi/arm-gnu-toolchain-13.2.Rel1-x86_64-arm-none-eabi/bin/../lib/gcc/arm-none-eabi/13.2.1/../../../../arm-none-eabi/lib/thumb/v7-a/nofp/libg.a(libc_a-locale.o)
                0x600567e8                __default_locale
 .data._impure_ptr
                0x60056808        0x4 /home/mustafa/arm-gnu-toolchain-13.2.rel1-x86_64-arm-none-eabi/arm-gnu-toolchain-13.2.Rel1-x86_64-arm-none-eabi/bin/../lib/gcc/arm-none-eabi/13.2.1/../../../../arm-none-eabi/lib/thumb/v7-a/nofp/libg.a(libc_a-impure.o)
                0x60056808                _impure_ptr
 *fill*         0x6005680c        0x4 
 .data._impure_data
                0x60056810      0x120 /home/mustafa/arm-gnu-toolchain-13.2.rel1-x86_64-arm-none-eabi/arm-gnu-toolchain-13.2.Rel1-x86_64-arm-none-eabi/bin/../lib/gcc/arm-none-eabi/13.2.1/../../../../arm-none-eabi/lib/thumb/v7-a/nofp/libg.a(libc_a-impure.o)
                0x60056810                _impure_data
 .data.__sglue  0x60056930        0xc /home/mustafa/arm-gnu-toolchain-13.2.rel1-x86_64-arm-none-eabi/arm-gnu-toolchain-13.2.Rel1-x86_64-arm-none-eabi/bin/../lib/gcc/arm-none-eabi/13.2.1/../../../../arm-none-eabi/lib/thumb/v7-a/nofp/libg.a(libc_a-findfp.o)
                0x60056930                __sglue
 *fill*         0x6005693c        0x4 
 .data.tzinfo   0x60056940       0x58 /home/mustafa/arm-gnu-toolchain-13.2.rel1-x86_64-arm-none-eabi/arm-gnu-toolchain-13.2.Rel1-x86_64-arm-none-eabi/bin/../lib/gcc/arm-none-eabi/13.2.1/../../../../arm-none-eabi/lib/thumb/v7-a/nofp/libg.a(libc_a-gettzinfo.o)
 .data.environ  0x60056998        0x4 /home/mustafa/arm-gnu-toolchain-13.2.rel1-x86_64-arm-none-eabi/arm-gnu-toolchain-13.2.Rel1-x86_64-arm-none-eabi/bin/../lib/gcc/arm-none-eabi/13.2.1/../../../../arm-none-eabi/lib/thumb/v7-a/nofp/libg.a(libc_a-environ.o)
                0x60056998                environ
                0x6005699c                        . = ALIGN (0x4)
                [!provide]                        PROVIDE (__preinit_array_start = .)
 *(.preinit_array)
                [!provide]                        PROVIDE (__preinit_array_end = .)
                0x6005699c                        . = ALIGN (0x4)
                [!provide]                        PROVIDE (__init_array_start = .)
 *(SORT_BY_NAME(.init_array.*))
 .init_array.00000
                0x6005699c        0x4 /home/mustafa/arm-gnu-toolchain-13.2.rel1-x86_64-arm-none-eabi/arm-gnu-toolchain-13.2.Rel1-x86_64-arm-none-eabi/bin/../lib/gcc/arm-none-eabi/13.2.1/../../../../arm-none-eabi/lib/thumb/v7-a/nofp/libg.a(libc_a-__call_atexit.o)
 *(.init_array)
                [!provide]                        PROVIDE (__init_array_end = .)
                0x600569a0                        . = ALIGN (0x4)
                0x600569a0                        PROVIDE (__fini_array_start = .)
 *(SORT_BY_NAME(.fini_array.*))
 *(.fini_array)
                0x600569a0                        PROVIDE (__fini_array_end = .)
 *(.jcr*)
                0x600569a0                        . = ALIGN (0x4)
                0x600569a0                        _end_data = .

.igot.plt       0x600569a0        0x0
 .igot.plt      0x600569a0        0x0 obj/startup.o

.bss            0x600569a0      0x67c
                0x600569a0                        . = ALIGN (0x4)
                0x600569a0                        _start_bss = .
 *(.bss)
 .bss           0x600569a0        0x0 obj/startup.o
 .bss           0x600569a0        0x0 obj/diskio.o
 .bss           0x600569a0        0x6 obj/ff.o
 .bss           0x600569a6        0x0 obj/ffsystem.o
 .bss           0x600569a6        0x0 obj/ffunicode.o
 .bss           0x600569a6        0x0 obj/gic.o
 *fill*         0x600569a6        0x2 
 .bss           0x600569a8       0xc8 obj/interrupt.o
                0x600569a8                isr_table
 .bss           0x60056a70        0x0 obj/kernel.o
 .bss           0x60056a70        0x0 obj/pl011.o
 .bss           0x60056a70        0x0 obj/pl031.o
 .bss           0x60056a70        0x0 obj/pl041.o
 .bss           0x60056a70        0x1 obj/pl050.o
                0x60056a70                tsc
 *fill*         0x60056a71        0x3 
 .bss           0x60056a74       0x60 obj/pl111.o
                0x60056a74                gui
                0x60056ad0                fb
 .bss           0x60056ad4       0x1c obj/pl181.o
                0x60056ad4                sd_read_buf
                0x60056ad8                rxbuf
                0x60056adc                txbuf
 .bss           0x60056af0        0x4 obj/sp804.o
                0x60056af0                counter
 .bss           0x60056af4        0x8 obj/syscall.o
 .bss           0x60056afc        0xc obj/ugui.o
 .bss           0x60056b08        0x0 /home/mustafa/arm-gnu-toolchain-13.2.rel1-x86_64-arm-none-eabi/arm-gnu-toolchain-13.2.Rel1-x86_64-arm-none-eabi/bin/../lib/gcc/arm-none-eabi/13.2.1/thumb/v7-a/nofp/libgcc.a(_udivsi3.o)
 .bss           0x60056b08        0x0 /home/mustafa/arm-gnu-toolchain-13.2.rel1-x86_64-arm-none-eabi/arm-gnu-toolchain-13.2.Rel1-x86_64-arm-none-eabi/bin/../lib/gcc/arm-none-eabi/13.2.1/thumb/v7-a/nofp/libgcc.a(_dvmd_tls.o)
 .bss           0x60056b08        0x0 /home/mustafa/arm-gnu-toolchain-13.2.rel1-x86_64-arm-none-eabi/arm-gnu-toolchain-13.2.Rel1-x86_64-arm-none-eabi/bin/../lib/gcc/arm-none-eabi/13.2.1/../../../../arm-none-eabi/lib/thumb/v7-a/nofp/libg.a(libc_a-exit.o)
 .bss           0x60056b08        0x0 /home/mustafa/arm-gnu-toolchain-13.2.rel1-x86_64-arm-none-eabi/arm-gnu-toolchain-13.2.Rel1-x86_64-arm-none-eabi/bin/../lib/gcc/arm-none-eabi/13.2.1/../../../../arm-none-eabi/lib/thumb/v7-a/nofp/libg.a(libc_a-asctime.o)
 .bss           0x60056b08        0x0 /home/mustafa/arm-gnu-toolchain-13.2.rel1-x86_64-arm-none-eabi/arm-gnu-toolchain-13.2.Rel1-x86_64-arm-none-eabi/bin/../lib/gcc/arm-none-eabi/13.2.1/../../../../arm-none-eabi/lib/thumb/v7-a/nofp/libg.a(libc_a-asctime_r.o)
 .bss           0x60056b08        0x0 /home/mustafa/arm-gnu-toolchain-13.2.rel1-x86_64-arm-none-eabi/arm-gnu-toolchain-13.2.Rel1-x86_64-arm-none-eabi/bin/../lib/gcc/arm-none-eabi/13.2.1/../../../../arm-none-eabi/lib/thumb/v7-a/nofp/libg.a(libc_a-gmtime.o)
 .bss           0x60056b08        0x0 /home/mustafa/arm-gnu-toolchain-13.2.rel1-x86_64-arm-none-eabi/arm-gnu-toolchain-13.2.Rel1-x86_64-arm-none-eabi/bin/../lib/gcc/arm-none-eabi/13.2.1/../../../../arm-none-eabi/lib/thumb/v7-a/nofp/libg.a(libc_a-gmtime_r.o)
 .bss           0x60056b08        0x0 /home/mustafa/arm-gnu-toolchain-13.2.rel1-x86_64-arm-none-eabi/arm-gnu-toolchain-13.2.Rel1-x86_64-arm-none-eabi/bin/../lib/gcc/arm-none-eabi/13.2.1/../../../../arm-none-eabi/lib/thumb/v7-a/nofp/libg.a(libc_a-lcltime.o)
 .bss           0x60056b08        0x0 /home/mustafa/arm-gnu-toolchain-13.2.rel1-x86_64-arm-none-eabi/arm-gnu-toolchain-13.2.Rel1-x86_64-arm-none-eabi/bin/../lib/gcc/arm-none-eabi/13.2.1/../../../../arm-none-eabi/lib/thumb/v7-a/nofp/libg.a(libc_a-lcltime_r.o)
 .bss           0x60056b08        0x0 /home/mustafa/arm-gnu-toolchain-13.2.rel1-x86_64-arm-none-eabi/arm-gnu-toolchain-13.2.Rel1-x86_64-arm-none-eabi/bin/../lib/gcc/arm-none-eabi/13.2.1/../../../../arm-none-eabi/lib/thumb/v7-a/nofp/libg.a(libc_a-month_lengths.o)
 .bss           0x60056b08        0x0 /home/mustafa/arm-gnu-toolchain-13.2.rel1-x86_64-arm-none-eabi/arm-gnu-toolchain-13.2.Rel1-x86_64-arm-none-eabi/bin/../lib/gcc/arm-none-eabi/13.2.1/../../../../arm-none-eabi/lib/thumb/v7-a/nofp/libg.a(libc_a-siprintf.o)
 .bss           0x60056b08        0x0 /home/mustafa/arm-gnu-toolchain-13.2.rel1-x86_64-arm-none-eabi/arm-gnu-toolchain-13.2.Rel1-x86_64-arm-none-eabi/bin/../lib/gcc/arm-none-eabi/13.2.1/../../../../arm-none-eabi/lib/thumb/v7-a/nofp/libg.a(libc_a-errno.o)
 .bss           0x60056b08        0x0 /home/mustafa/arm-gnu-toolchain-13.2.rel1-x86_64-arm-none-eabi/arm-gnu-toolchain-13.2.Rel1-x86_64-arm-none-eabi/bin/../lib/gcc/arm-none-eabi/13.2.1/../../../../arm-none-eabi/lib/thumb/v7-a/nofp/libg.a(libc_a-svfiprintf.o)
 .bss           0x60056b08        0x0 /home/mustafa/arm-gnu-toolchain-13.2.rel1-x86_64-arm-none-eabi/arm-gnu-toolchain-13.2.Rel1-x86_64-arm-none-eabi/bin/../lib/gcc/arm-none-eabi/13.2.1/../../../../arm-none-eabi/lib/thumb/v7-a/nofp/libg.a(libc_a-tzcalc_limits.o)
 .bss           0x60056b08        0x0 /home/mustafa/arm-gnu-toolchain-13.2.rel1-x86_64-arm-none-eabi/arm-gnu-toolchain-13.2.Rel1-x86_64-arm-none-eabi/bin/../lib/gcc/arm-none-eabi/13.2.1/../../../../arm-none-eabi/lib/thumb/v7-a/nofp/libg.a(libc_a-tzlock.o)
 .bss           0x60056b08        0x0 /home/mustafa/arm-gnu-toolchain-13.2.rel1-x86_64-arm-none-eabi/arm-gnu-toolchain-13.2.Rel1-x86_64-arm-none-eabi/bin/../lib/gcc/arm-none-eabi/13.2.1/../../../../arm-none-eabi/lib/thumb/v7-a/nofp/libg.a(libc_a-malloc.o)
 .bss           0x60056b08        0x0 /home/mustafa/arm-gnu-toolchain-13.2.rel1-x86_64-arm-none-eabi/arm-gnu-toolchain-13.2.Rel1-x86_64-arm-none-eabi/bin/../lib/gcc/arm-none-eabi/13.2.1/../../../../arm-none-eabi/lib/thumb/v7-a/nofp/libg.a(libc_a-mallocr.o)
 .bss           0x60056b08        0x0 /home/mustafa/arm-gnu-toolchain-13.2.rel1-x86_64-arm-none-eabi/arm-gnu-toolchain-13.2.Rel1-x86_64-arm-none-eabi/bin/../lib/gcc/arm-none-eabi/13.2.1/../../../../arm-none-eabi/lib/thumb/v7-a/nofp/libg.a(libc_a-__call_atexit.o)
 .bss           0x60056b08        0x0 /home/mustafa/arm-gnu-toolchain-13.2.rel1-x86_64-arm-none-eabi/arm-gnu-toolchain-13.2.Rel1-x86_64-arm-none-eabi/bin/../lib/gcc/arm-none-eabi/13.2.1/../../../../arm-none-eabi/lib/thumb/v7-a/nofp/libg.a(libc_a-memcmp.o)
 .bss           0x60056b08        0x0 /home/mustafa/arm-gnu-toolchain-13.2.rel1-x86_64-arm-none-eabi/arm-gnu-toolchain-13.2.Rel1-x86_64-arm-none-eabi/bin/../lib/gcc/arm-none-eabi/13.2.1/../../../../arm-none-eabi/lib/thumb/v7-a/nofp/libg.a(libc_a-memmove.o)
 .bss           0x60056b08        0x0 /home/mustafa/arm-gnu-toolchain-13.2.rel1-x86_64-arm-none-eabi/arm-gnu-toolchain-13.2.Rel1-x86_64-arm-none-eabi/bin/../lib/gcc/arm-none-eabi/13.2.1/../../../../arm-none-eabi/lib/thumb/v7-a/nofp/libg.a(libc_a-memset.o)
 .bss           0x60056b08        0x0 /home/mustafa/arm-gnu-toolchain-13.2.rel1-x86_64-arm-none-eabi/arm-gnu-toolchain-13.2.Rel1-x86_64-arm-none-eabi/bin/../lib/gcc/arm-none-eabi/13.2.1/../../../../arm-none-eabi/lib/thumb/v7-a/nofp/libg.a(libc_a-wcrtomb.o)
 .bss           0x60056b08        0x0 /home/mustafa/arm-gnu-toolchain-13.2.rel1-x86_64-arm-none-eabi/arm-gnu-toolchain-13.2.Rel1-x86_64-arm-none-eabi/bin/../lib/gcc/arm-none-eabi/13.2.1/../../../../arm-none-eabi/lib/thumb/v7-a/nofp/libg.a(libc_a-tzset.o)
 .bss           0x60056b08        0x0 /home/mustafa/arm-gnu-toolchain-13.2.rel1-x86_64-arm-none-eabi/arm-gnu-toolchain-13.2.Rel1-x86_64-arm-none-eabi/bin/../lib/gcc/arm-none-eabi/13.2.1/../../../../arm-none-eabi/lib/thumb/v7-a/nofp/libg.a(libc_a-tzset_r.o)
 .bss           0x60056b08        0x0 /home/mustafa/arm-gnu-toolchain-13.2.rel1-x86_64-arm-none-eabi/arm-gnu-toolchain-13.2.Rel1-x86_64-arm-none-eabi/bin/../lib/gcc/arm-none-eabi/13.2.1/../../../../arm-none-eabi/lib/thumb/v7-a/nofp/libg.a(libc_a-tzvars.o)
 .bss           0x60056b08        0x0 /home/mustafa/arm-gnu-toolchain-13.2.rel1-x86_64-arm-none-eabi/arm-gnu-toolchain-13.2.Rel1-x86_64-arm-none-eabi/bin/../lib/gcc/arm-none-eabi/13.2.1/../../../../arm-none-eabi/lib/thumb/v7-a/nofp/libg.a(libc_a-fini.o)
 .bss           0x60056b08        0x0 /home/mustafa/arm-gnu-toolchain-13.2.rel1-x86_64-arm-none-eabi/arm-gnu-toolchain-13.2.Rel1-x86_64-arm-none-eabi/bin/../lib/gcc/arm-none-eabi/13.2.1/../../../../arm-none-eabi/lib/thumb/v7-a/nofp/libg.a(libc_a-lock.o)
 .bss           0x60056b08        0x0 /home/mustafa/arm-gnu-toolchain-13.2.rel1-x86_64-arm-none-eabi/arm-gnu-toolchain-13.2.Rel1-x86_64-arm-none-eabi/bin/../lib/gcc/arm-none-eabi/13.2.1/../../../../arm-none-eabi/lib/thumb/v7-a/nofp/libg.a(libc_a-locale.o)
 .bss           0x60056b08        0x0 /home/mustafa/arm-gnu-toolchain-13.2.rel1-x86_64-arm-none-eabi/arm-gnu-toolchain-13.2.Rel1-x86_64-arm-none-eabi/bin/../lib/gcc/arm-none-eabi/13.2.1/../../../../arm-none-eabi/lib/thumb/v7-a/nofp/libg.a(libc_a-localeconv.o)
 .bss           0x60056b08        0x0 /home/mustafa/arm-gnu-toolchain-13.2.rel1-x86_64-arm-none-eabi/arm-gnu-toolchain-13.2.Rel1-x86_64-arm-none-eabi/bin/../lib/gcc/arm-none-eabi/13.2.1/../../../../arm-none-eabi/lib/thumb/v7-a/nofp/libg.a(libc_a-sysconf.o)
 .bss           0x60056b08        0x0 /home/mustafa/arm-gnu-toolchain-13.2.rel1-x86_64-arm-none-eabi/arm-gnu-toolchain-13.2.Rel1-x86_64-arm-none-eabi/bin/../lib/gcc/arm-none-eabi/13.2.1/../../../../arm-none-eabi/lib/thumb/v7-a/nofp/libg.a(libc_a-strcmp.o)
 .bss           0x60056b08        0x0 /home/mustafa/arm-gnu-toolchain-13.2.rel1-x86_64-arm-none-eabi/arm-gnu-toolchain-13.2.Rel1-x86_64-arm-none-eabi/bin/../lib/gcc/arm-none-eabi/13.2.1/../../../../arm-none-eabi/lib/thumb/v7-a/nofp/libg.a(libc_a-printf.o)
 .bss           0x60056b08        0x0 /home/mustafa/arm-gnu-toolchain-13.2.rel1-x86_64-arm-none-eabi/arm-gnu-toolchain-13.2.Rel1-x86_64-arm-none-eabi/bin/../lib/gcc/arm-none-eabi/13.2.1/../../../../arm-none-eabi/lib/thumb/v7-a/nofp/libg.a(libc_a-strcpy.o)
 .bss           0x60056b08        0x0 /home/mustafa/arm-gnu-toolchain-13.2.rel1-x86_64-arm-none-eabi/arm-gnu-toolchain-13.2.Rel1-x86_64-arm-none-eabi/bin/../lib/gcc/arm-none-eabi/13.2.1/../../../../arm-none-eabi/lib/thumb/v7-a/nofp/libg.a(libc_a-putchar.o)
 .bss           0x60056b08        0x0 /home/mustafa/arm-gnu-toolchain-13.2.rel1-x86_64-arm-none-eabi/arm-gnu-toolchain-13.2.Rel1-x86_64-arm-none-eabi/bin/../lib/gcc/arm-none-eabi/13.2.1/../../../../arm-none-eabi/lib/thumb/v7-a/nofp/libg.a(libc_a-puts.o)
 .bss           0x60056b08        0x0 /home/mustafa/arm-gnu-toolchain-13.2.rel1-x86_64-arm-none-eabi/arm-gnu-toolchain-13.2.Rel1-x86_64-arm-none-eabi/bin/../lib/gcc/arm-none-eabi/13.2.1/../../../../arm-none-eabi/lib/thumb/v7-a/nofp/libg.a(libc_a-mlock.o)
 .bss           0x60056b08        0x0 /home/mustafa/arm-gnu-toolchain-13.2.rel1-x86_64-arm-none-eabi/arm-gnu-toolchain-13.2.Rel1-x86_64-arm-none-eabi/bin/../lib/gcc/arm-none-eabi/13.2.1/../../../../arm-none-eabi/lib/thumb/v7-a/nofp/libg.a(libc_a-atexit.o)
 .bss           0x60056b08        0x0 /home/mustafa/arm-gnu-toolchain-13.2.rel1-x86_64-arm-none-eabi/arm-gnu-toolchain-13.2.Rel1-x86_64-arm-none-eabi/bin/../lib/gcc/arm-none-eabi/13.2.1/../../../../arm-none-eabi/lib/thumb/v7-a/nofp/libg.a(libc_a-strchr.o)
 .bss           0x60056b08        0x0 /home/mustafa/arm-gnu-toolchain-13.2.rel1-x86_64-arm-none-eabi/arm-gnu-toolchain-13.2.Rel1-x86_64-arm-none-eabi/bin/../lib/gcc/arm-none-eabi/13.2.1/../../../../arm-none-eabi/lib/thumb/v7-a/nofp/libg.a(libc_a-wcsrtombs.o)
 .bss           0x60056b08        0x0 /home/mustafa/arm-gnu-toolchain-13.2.rel1-x86_64-arm-none-eabi/arm-gnu-toolchain-13.2.Rel1-x86_64-arm-none-eabi/bin/../lib/gcc/arm-none-eabi/13.2.1/../../../../arm-none-eabi/lib/thumb/v7-a/nofp/libg.a(libc_a-ctype_.o)
 .bss           0x60056b08        0x0 /home/mustafa/arm-gnu-toolchain-13.2.rel1-x86_64-arm-none-eabi/arm-gnu-toolchain-13.2.Rel1-x86_64-arm-none-eabi/bin/../lib/gcc/arm-none-eabi/13.2.1/../../../../arm-none-eabi/lib/thumb/v7-a/nofp/libg.a(libc_a-impure.o)
 .bss           0x60056b08        0x0 /home/mustafa/arm-gnu-toolchain-13.2.rel1-x86_64-arm-none-eabi/arm-gnu-toolchain-13.2.Rel1-x86_64-arm-none-eabi/bin/../lib/gcc/arm-none-eabi/13.2.1/../../../../arm-none-eabi/lib/thumb/v7-a/nofp/libg.a(libc_a-findfp.o)
 .bss           0x60056b08        0x0 /home/mustafa/arm-gnu-toolchain-13.2.rel1-x86_64-arm-none-eabi/arm-gnu-toolchain-13.2.Rel1-x86_64-arm-none-eabi/bin/../lib/gcc/arm-none-eabi/13.2.1/../../../../arm-none-eabi/lib/thumb/v7-a/nofp/libg.a(libc_a-memchr.o)
 .bss           0x60056b08        0x0 /home/mustafa/arm-gnu-toolchain-13.2.rel1-x86_64-arm-none-eabi/arm-gnu-toolchain-13.2.Rel1-x86_64-arm-none-eabi/bin/../lib/gcc/arm-none-eabi/13.2.1/../../../../arm-none-eabi/lib/thumb/v7-a/nofp/libg.a(libc_a-memcpy.o)
 .bss           0x60056b08        0x0 /home/mustafa/arm-gnu-toolchain-13.2.rel1-x86_64-arm-none-eabi/arm-gnu-toolchain-13.2.Rel1-x86_64-arm-none-eabi/bin/../lib/gcc/arm-none-eabi/13.2.1/../../../../arm-none-eabi/lib/thumb/v7-a/nofp/libg.a(libc_a-reallocr.o)
 .bss           0x60056b08        0x0 /home/mustafa/arm-gnu-toolchain-13.2.rel1-x86_64-arm-none-eabi/arm-gnu-toolchain-13.2.Rel1-x86_64-arm-none-eabi/bin/../lib/gcc/arm-none-eabi/13.2.1/../../../../arm-none-eabi/lib/thumb/v7-a/nofp/libg.a(libc_a-strlcpy.o)
 .bss           0x60056b08        0x0 /home/mustafa/arm-gnu-toolchain-13.2.rel1-x86_64-arm-none-eabi/arm-gnu-toolchain-13.2.Rel1-x86_64-arm-none-eabi/bin/../lib/gcc/arm-none-eabi/13.2.1/../../../../arm-none-eabi/lib/thumb/v7-a/nofp/libg.a(libc_a-freer.o)
 .bss           0x60056b08        0x0 /home/mustafa/arm-gnu-toolchain-13.2.rel1-x86_64-arm-none-eabi/arm-gnu-toolchain-13.2.Rel1-x86_64-arm-none-eabi/bin/../lib/gcc/arm-none-eabi/13.2.1/../../../../arm-none-eabi/lib/thumb/v7-a/nofp/libg.a(libc_a-strtol.o)
 .bss           0x60056b08        0x0 /home/mustafa/arm-gnu-toolchain-13.2.rel1-x86_64-arm-none-eabi/arm-gnu-toolchain-13.2.Rel1-x86_64-arm-none-eabi/bin/../lib/gcc/arm-none-eabi/13.2.1/../../../../arm-none-eabi/lib/thumb/v7-a/nofp/libg.a(libc_a-strtoul.o)
 .bss           0x60056b08        0x0 /home/mustafa/arm-gnu-toolchain-13.2.rel1-x86_64-arm-none-eabi/arm-gnu-toolchain-13.2.Rel1-x86_64-arm-none-eabi/bin/../lib/gcc/arm-none-eabi/13.2.1/../../../../arm-none-eabi/lib/thumb/v7-a/nofp/libg.a(libc_a-strncasecmp.o)
 .bss           0x60056b08        0x0 /home/mustafa/arm-gnu-toolchain-13.2.rel1-x86_64-arm-none-eabi/arm-gnu-toolchain-13.2.Rel1-x86_64-arm-none-eabi/bin/../lib/gcc/arm-none-eabi/13.2.1/../../../../arm-none-eabi/lib/thumb/v7-a/nofp/libg.a(libc_a-getenv_r.o)
 .bss           0x60056b08        0x0 /home/mustafa/arm-gnu-toolchain-13.2.rel1-x86_64-arm-none-eabi/arm-gnu-toolchain-13.2.Rel1-x86_64-arm-none-eabi/bin/../lib/gcc/arm-none-eabi/13.2.1/../../../../arm-none-eabi/lib/thumb/v7-a/nofp/libg.a(libc_a-strncpy.o)
 .bss           0x60056b08        0x0 /home/mustafa/arm-gnu-toolchain-13.2.rel1-x86_64-arm-none-eabi/arm-gnu-toolchain-13.2.Rel1-x86_64-arm-none-eabi/bin/../lib/gcc/arm-none-eabi/13.2.1/../../../../arm-none-eabi/lib/thumb/v7-a/nofp/libg.a(libc_a-gettzinfo.o)
 .bss           0x60056b08        0x0 /home/mustafa/arm-gnu-toolchain-13.2.rel1-x86_64-arm-none-eabi/arm-gnu-toolchain-13.2.Rel1-x86_64-arm-none-eabi/bin/../lib/gcc/arm-none-eabi/13.2.1/../../../../arm-none-eabi/lib/thumb/v7-a/nofp/libg.a(libc_a-strlen.o)
 .bss           0x60056b08        0x0 /home/mustafa/arm-gnu-toolchain-13.2.rel1-x86_64-arm-none-eabi/arm-gnu-toolchain-13.2.Rel1-x86_64-arm-none-eabi/bin/../lib/gcc/arm-none-eabi/13.2.1/../../../../arm-none-eabi/lib/thumb/v7-a/nofp/libg.a(libc_a-stdio.o)
 .bss           0x60056b08        0x0 /home/mustafa/arm-gnu-toolchain-13.2.rel1-x86_64-arm-none-eabi/arm-gnu-toolchain-13.2.Rel1-x86_64-arm-none-eabi/bin/../lib/gcc/arm-none-eabi/13.2.1/../../../../arm-none-eabi/lib/thumb/v7-a/nofp/libg.a(libc_a-wctomb_r.o)
 .bss           0x60056b08        0x0 /home/mustafa/arm-gnu-toolchain-13.2.rel1-x86_64-arm-none-eabi/arm-gnu-toolchain-13.2.Rel1-x86_64-arm-none-eabi/bin/../lib/gcc/arm-none-eabi/13.2.1/../../../../arm-none-eabi/lib/thumb/v7-a/nofp/libg.a(libc_a-sbrkr.o)
 .bss           0x60056b08        0x0 /home/mustafa/arm-gnu-toolchain-13.2.rel1-x86_64-arm-none-eabi/arm-gnu-toolchain-13.2.Rel1-x86_64-arm-none-eabi/bin/../lib/gcc/arm-none-eabi/13.2.1/../../../../arm-none-eabi/lib/thumb/v7-a/nofp/libg.a(libc_a-fvwrite.o)
 .bss           0x60056b08        0x0 /home/mustafa/arm-gnu-toolchain-13.2.rel1-x86_64-arm-none-eabi/arm-gnu-toolchain-13.2.Rel1-x86_64-arm-none-eabi/bin/../lib/gcc/arm-none-eabi/13.2.1/../../../../arm-none-eabi/lib/thumb/v7-a/nofp/libg.a(libc_a-fwalk.o)
 .bss           0x60056b08        0x0 /home/mustafa/arm-gnu-toolchain-13.2.rel1-x86_64-arm-none-eabi/arm-gnu-toolchain-13.2.Rel1-x86_64-arm-none-eabi/bin/../lib/gcc/arm-none-eabi/13.2.1/../../../../arm-none-eabi/lib/thumb/v7-a/nofp/libg.a(libc_a-writer.o)
 .bss           0x60056b08        0x0 /home/mustafa/arm-gnu-toolchain-13.2.rel1-x86_64-arm-none-eabi/arm-gnu-toolchain-13.2.Rel1-x86_64-arm-none-eabi/bin/../lib/gcc/arm-none-eabi/13.2.1/../../../../arm-none-eabi/lib/thumb/v7-a/nofp/libg.a(libc_a-siscanf.o)
 .bss           0x60056b08        0x0 /home/mustafa/arm-gnu-toolchain-13.2.rel1-x86_64-arm-none-eabi/arm-gnu-toolchain-13.2.Rel1-x86_64-arm-none-eabi/bin/../lib/gcc/arm-none-eabi/13.2.1/../../../../arm-none-eabi/lib/thumb/v7-a/nofp/libg.a(libc_a-svfiscanf.o)
 .bss           0x60056b08        0x0 /home/mustafa/arm-gnu-toolchain-13.2.rel1-x86_64-arm-none-eabi/arm-gnu-toolchain-13.2.Rel1-x86_64-arm-none-eabi/bin/../lib/gcc/arm-none-eabi/13.2.1/../../../../arm-none-eabi/lib/thumb/v7-a/nofp/libg.a(libc_a-vfprintf.o)
 .bss           0x60056b08        0x0 /home/mustafa/arm-gnu-toolchain-13.2.rel1-x86_64-arm-none-eabi/arm-gnu-toolchain-13.2.Rel1-x86_64-arm-none-eabi/bin/../lib/gcc/arm-none-eabi/13.2.1/../../../../arm-none-eabi/lib/thumb/v7-a/nofp/libg.a(libc_a-vfiprintf.o)
 .bss           0x60056b08        0x0 /home/mustafa/arm-gnu-toolchain-13.2.rel1-x86_64-arm-none-eabi/arm-gnu-toolchain-13.2.Rel1-x86_64-arm-none-eabi/bin/../lib/gcc/arm-none-eabi/13.2.1/../../../../arm-none-eabi/lib/thumb/v7-a/nofp/libg.a(libc_a-__atexit.o)
 .bss           0x60056b08        0x0 /home/mustafa/arm-gnu-toolchain-13.2.rel1-x86_64-arm-none-eabi/arm-gnu-toolchain-13.2.Rel1-x86_64-arm-none-eabi/bin/../lib/gcc/arm-none-eabi/13.2.1/../../../../arm-none-eabi/lib/thumb/v7-a/nofp/libg.a(libc_a-mbtowc_r.o)
 .bss           0x60056b08        0x0 /home/mustafa/arm-gnu-toolchain-13.2.rel1-x86_64-arm-none-eabi/arm-gnu-toolchain-13.2.Rel1-x86_64-arm-none-eabi/bin/../lib/gcc/arm-none-eabi/13.2.1/../../../../arm-none-eabi/lib/thumb/v7-a/nofp/libg.a(libc_a-mbrtowc.o)
 .bss           0x60056b08        0x0 /home/mustafa/arm-gnu-toolchain-13.2.rel1-x86_64-arm-none-eabi/arm-gnu-toolchain-13.2.Rel1-x86_64-arm-none-eabi/bin/../lib/gcc/arm-none-eabi/13.2.1/../../../../arm-none-eabi/lib/thumb/v7-a/nofp/libg.a(libc_a-strcasecmp.o)
 .bss           0x60056b08        0x0 /home/mustafa/arm-gnu-toolchain-13.2.rel1-x86_64-arm-none-eabi/arm-gnu-toolchain-13.2.Rel1-x86_64-arm-none-eabi/bin/../lib/gcc/arm-none-eabi/13.2.1/../../../../arm-none-eabi/lib/thumb/v7-a/nofp/libg.a(libc_a-strcat.o)
 .bss           0x60056b08        0x0 /home/mustafa/arm-gnu-toolchain-13.2.rel1-x86_64-arm-none-eabi/arm-gnu-toolchain-13.2.Rel1-x86_64-arm-none-eabi/bin/../lib/gcc/arm-none-eabi/13.2.1/../../../../arm-none-eabi/lib/thumb/v7-a/nofp/libg.a(libc_a-fclose.o)
 .bss           0x60056b08        0x0 /home/mustafa/arm-gnu-toolchain-13.2.rel1-x86_64-arm-none-eabi/arm-gnu-toolchain-13.2.Rel1-x86_64-arm-none-eabi/bin/../lib/gcc/arm-none-eabi/13.2.1/../../../../arm-none-eabi/lib/thumb/v7-a/nofp/libg.a(libc_a-wsetup.o)
 .bss           0x60056b08        0x0 /home/mustafa/arm-gnu-toolchain-13.2.rel1-x86_64-arm-none-eabi/arm-gnu-toolchain-13.2.Rel1-x86_64-arm-none-eabi/bin/../lib/gcc/arm-none-eabi/13.2.1/../../../../arm-none-eabi/lib/thumb/v7-a/nofp/libg.a(libc_a-makebuf.o)
 .bss           0x60056b08        0x0 /home/mustafa/arm-gnu-toolchain-13.2.rel1-x86_64-arm-none-eabi/arm-gnu-toolchain-13.2.Rel1-x86_64-arm-none-eabi/bin/../lib/gcc/arm-none-eabi/13.2.1/../../../../arm-none-eabi/lib/thumb/v7-a/nofp/libg.a(libc_a-putc.o)
 .bss           0x60056b08        0x0 /home/mustafa/arm-gnu-toolchain-13.2.rel1-x86_64-arm-none-eabi/arm-gnu-toolchain-13.2.Rel1-x86_64-arm-none-eabi/bin/../lib/gcc/arm-none-eabi/13.2.1/../../../../arm-none-eabi/lib/thumb/v7-a/nofp/libg.a(libc_a-wcsnrtombs.o)
 .bss           0x60056b08        0x0 /home/mustafa/arm-gnu-toolchain-13.2.rel1-x86_64-arm-none-eabi/arm-gnu-toolchain-13.2.Rel1-x86_64-arm-none-eabi/bin/../lib/gcc/arm-none-eabi/13.2.1/../../../../arm-none-eabi/lib/thumb/v7-a/nofp/libg.a(libc_a-realloc.o)
 .bss           0x60056b08        0x0 /home/mustafa/arm-gnu-toolchain-13.2.rel1-x86_64-arm-none-eabi/arm-gnu-toolchain-13.2.Rel1-x86_64-arm-none-eabi/bin/../lib/gcc/arm-none-eabi/13.2.1/../../../../arm-none-eabi/lib/thumb/v7-a/nofp/libg.a(libc_a-dtoa.o)
 .bss           0x60056b08        0x0 /home/mustafa/arm-gnu-toolchain-13.2.rel1-x86_64-arm-none-eabi/arm-gnu-toolchain-13.2.Rel1-x86_64-arm-none-eabi/bin/../lib/gcc/arm-none-eabi/13.2.1/../../../../arm-none-eabi/lib/thumb/v7-a/nofp/libg.a(libc_a-closer.o)
 .bss           0x60056b08        0x0 /home/mustafa/arm-gnu-toolchain-13.2.rel1-x86_64-arm-none-eabi/arm-gnu-toolchain-13.2.Rel1-x86_64-arm-none-eabi/bin/../lib/gcc/arm-none-eabi/13.2.1/../../../../arm-none-eabi/lib/thumb/v7-a/nofp/libg.a(libc_a-reent.o)
 .bss           0x60056b08        0x0 /home/mustafa/arm-gnu-toolchain-13.2.rel1-x86_64-arm-none-eabi/arm-gnu-toolchain-13.2.Rel1-x86_64-arm-none-eabi/bin/../lib/gcc/arm-none-eabi/13.2.1/../../../../arm-none-eabi/lib/thumb/v7-a/nofp/libg.a(libc_a-fflush.o)
 .bss           0x60056b08        0x0 /home/mustafa/arm-gnu-toolchain-13.2.rel1-x86_64-arm-none-eabi/arm-gnu-toolchain-13.2.Rel1-x86_64-arm-none-eabi/bin/../lib/gcc/arm-none-eabi/13.2.1/../../../../arm-none-eabi/lib/thumb/v7-a/nofp/libg.a(libc_a-sccl.o)
 .bss           0x60056b08        0x0 /home/mustafa/arm-gnu-toolchain-13.2.rel1-x86_64-arm-none-eabi/arm-gnu-toolchain-13.2.Rel1-x86_64-arm-none-eabi/bin/../lib/gcc/arm-none-eabi/13.2.1/../../../../arm-none-eabi/lib/thumb/v7-a/nofp/libg.a(libm_a-s_frexp.o)
 .bss           0x60056b08        0x0 /home/mustafa/arm-gnu-toolchain-13.2.rel1-x86_64-arm-none-eabi/arm-gnu-toolchain-13.2.Rel1-x86_64-arm-none-eabi/bin/../lib/gcc/arm-none-eabi/13.2.1/../../../../arm-none-eabi/lib/thumb/v7-a/nofp/libg.a(libc_a-environ.o)
 .bss           0x60056b08        0x0 /home/mustafa/arm-gnu-toolchain-13.2.rel1-x86_64-arm-none-eabi/arm-gnu-toolchain-13.2.Rel1-x86_64-arm-none-eabi/bin/../lib/gcc/arm-none-eabi/13.2.1/../../../../arm-none-eabi/lib/thumb/v7-a/nofp/libg.a(libc_a-envlock.o)
 .bss           0x60056b08        0x0 /home/mustafa/arm-gnu-toolchain-13.2.rel1-x86_64-arm-none-eabi/arm-gnu-toolchain-13.2.Rel1-x86_64-arm-none-eabi/bin/../lib/gcc/arm-none-eabi/13.2.1/../../../../arm-none-eabi/lib/thumb/v7-a/nofp/libg.a(libc_a-strncmp.o)
 .bss           0x60056b08        0x0 /home/mustafa/arm-gnu-toolchain-13.2.rel1-x86_64-arm-none-eabi/arm-gnu-toolchain-13.2.Rel1-x86_64-arm-none-eabi/bin/../lib/gcc/arm-none-eabi/13.2.1/../../../../arm-none-eabi/lib/thumb/v7-a/nofp/libg.a(libc_a-strtoll.o)
 .bss           0x60056b08        0x0 /home/mustafa/arm-gnu-toolchain-13.2.rel1-x86_64-arm-none-eabi/arm-gnu-toolchain-13.2.Rel1-x86_64-arm-none-eabi/bin/../lib/gcc/arm-none-eabi/13.2.1/../../../../arm-none-eabi/lib/thumb/v7-a/nofp/libg.a(libc_a-strtoull.o)
 .bss           0x60056b08        0x0 /home/mustafa/arm-gnu-toolchain-13.2.rel1-x86_64-arm-none-eabi/arm-gnu-toolchain-13.2.Rel1-x86_64-arm-none-eabi/bin/../lib/gcc/arm-none-eabi/13.2.1/../../../../arm-none-eabi/lib/thumb/v7-a/nofp/libg.a(libc_a-fstatr.o)
 .bss           0x60056b08        0x0 /home/mustafa/arm-gnu-toolchain-13.2.rel1-x86_64-arm-none-eabi/arm-gnu-toolchain-13.2.Rel1-x86_64-arm-none-eabi/bin/../lib/gcc/arm-none-eabi/13.2.1/../../../../arm-none-eabi/lib/thumb/v7-a/nofp/libg.a(libc_a-isattyr.o)
 .bss           0x60056b08        0x0 /home/mustafa/arm-gnu-toolchain-13.2.rel1-x86_64-arm-none-eabi/arm-gnu-toolchain-13.2.Rel1-x86_64-arm-none-eabi/bin/../lib/gcc/arm-none-eabi/13.2.1/../../../../arm-none-eabi/lib/thumb/v7-a/nofp/libg.a(libc_a-lseekr.o)
 .bss           0x60056b08        0x0 /home/mustafa/arm-gnu-toolchain-13.2.rel1-x86_64-arm-none-eabi/arm-gnu-toolchain-13.2.Rel1-x86_64-arm-none-eabi/bin/../lib/gcc/arm-none-eabi/13.2.1/../../../../arm-none-eabi/lib/thumb/v7-a/nofp/libg.a(libc_a-readr.o)
 .bss           0x60056b08        0x0 /home/mustafa/arm-gnu-toolchain-13.2.rel1-x86_64-arm-none-eabi/arm-gnu-toolchain-13.2.Rel1-x86_64-arm-none-eabi/bin/../lib/gcc/arm-none-eabi/13.2.1/../../../../arm-none-eabi/lib/thumb/v7-a/nofp/libg.a(libc_a-iswspace.o)
 .bss           0x60056b08        0x0 /home/mustafa/arm-gnu-toolchain-13.2.rel1-x86_64-arm-none-eabi/arm-gnu-toolchain-13.2.Rel1-x86_64-arm-none-eabi/bin/../lib/gcc/arm-none-eabi/13.2.1/../../../../arm-none-eabi/lib/thumb/v7-a/nofp/libg.a(libc_a-iswspace_l.o)
 .bss           0x60056b08        0x0 /home/mustafa/arm-gnu-toolchain-13.2.rel1-x86_64-arm-none-eabi/arm-gnu-toolchain-13.2.Rel1-x86_64-arm-none-eabi/bin/../lib/gcc/arm-none-eabi/13.2.1/../../../../arm-none-eabi/lib/thumb/v7-a/nofp/libg.a(libc_a-fputwc.o)
 .bss           0x60056b08        0x0 /home/mustafa/arm-gnu-toolchain-13.2.rel1-x86_64-arm-none-eabi/arm-gnu-toolchain-13.2.Rel1-x86_64-arm-none-eabi/bin/../lib/gcc/arm-none-eabi/13.2.1/../../../../arm-none-eabi/lib/thumb/v7-a/nofp/libg.a(libc_a-ungetc.o)
 .bss           0x60056b08        0x0 /home/mustafa/arm-gnu-toolchain-13.2.rel1-x86_64-arm-none-eabi/arm-gnu-toolchain-13.2.Rel1-x86_64-arm-none-eabi/bin/../lib/gcc/arm-none-eabi/13.2.1/../../../../arm-none-eabi/lib/thumb/v7-a/nofp/libg.a(libc_a-categories.o)
 .bss           0x60056b08        0x0 /home/mustafa/arm-gnu-toolchain-13.2.rel1-x86_64-arm-none-eabi/arm-gnu-toolchain-13.2.Rel1-x86_64-arm-none-eabi/bin/../lib/gcc/arm-none-eabi/13.2.1/../../../../arm-none-eabi/lib/thumb/v7-a/nofp/libg.a(libc_a-jp2uc.o)
 .bss           0x60056b08        0x0 /home/mustafa/arm-gnu-toolchain-13.2.rel1-x86_64-arm-none-eabi/arm-gnu-toolchain-13.2.Rel1-x86_64-arm-none-eabi/bin/../lib/gcc/arm-none-eabi/13.2.1/../../../../arm-none-eabi/lib/thumb/v7-a/nofp/libg.a(libc_a-wbuf.o)
 .bss           0x60056b08        0x0 /home/mustafa/arm-gnu-toolchain-13.2.rel1-x86_64-arm-none-eabi/arm-gnu-toolchain-13.2.Rel1-x86_64-arm-none-eabi/bin/../lib/gcc/arm-none-eabi/13.2.1/../../../../arm-none-eabi/lib/thumb/v7-a/nofp/libg.a(libc_a-assert.o)
 .bss           0x60056b08        0x0 /home/mustafa/arm-gnu-toolchain-13.2.rel1-x86_64-arm-none-eabi/arm-gnu-toolchain-13.2.Rel1-x86_64-arm-none-eabi/bin/../lib/gcc/arm-none-eabi/13.2.1/../../../../arm-none-eabi/lib/thumb/v7-a/nofp/libg.a(libc_a-mprec.o)
 .bss           0x60056b08        0x0 /home/mustafa/arm-gnu-toolchain-13.2.rel1-x86_64-arm-none-eabi/arm-gnu-toolchain-13.2.Rel1-x86_64-arm-none-eabi/bin/../lib/gcc/arm-none-eabi/13.2.1/../../../../arm-none-eabi/lib/thumb/v7-a/nofp/libg.a(libc_a-callocr.o)
 .bss           0x60056b08        0x0 /home/mustafa/arm-gnu-toolchain-13.2.rel1-x86_64-arm-none-eabi/arm-gnu-toolchain-13.2.Rel1-x86_64-arm-none-eabi/bin/../lib/gcc/arm-none-eabi/13.2.1/../../../../arm-none-eabi/lib/thumb/v7-a/nofp/libg.a(libc_a-fiprintf.o)
 .bss           0x60056b08        0x0 /home/mustafa/arm-gnu-toolchain-13.2.rel1-x86_64-arm-none-eabi/arm-gnu-toolchain-13.2.Rel1-x86_64-arm-none-eabi/bin/../lib/gcc/arm-none-eabi/13.2.1/../../../../arm-none-eabi/lib/thumb/v7-a/nofp/libg.a(libc_a-abort.o)
 .bss           0x60056b08        0x0 /home/mustafa/arm-gnu-toolchain-13.2.rel1-x86_64-arm-none-eabi/arm-gnu-toolchain-13.2.Rel1-x86_64-arm-none-eabi/bin/../lib/gcc/arm-none-eabi/13.2.1/../../../../arm-none-eabi/lib/thumb/v7-a/nofp/libg.a(libc_a-signal.o)
 .bss           0x60056b08        0x0 /home/mustafa/arm-gnu-toolchain-13.2.rel1-x86_64-arm-none-eabi/arm-gnu-toolchain-13.2.Rel1-x86_64-arm-none-eabi/bin/../lib/gcc/arm-none-eabi/13.2.1/../../../../arm-none-eabi/lib/thumb/v7-a/nofp/libg.a(libc_a-signalr.o)
 .bss           0x60056b08        0x0 /home/mustafa/arm-gnu-toolchain-13.2.rel1-x86_64-arm-none-eabi/arm-gnu-toolchain-13.2.Rel1-x86_64-arm-none-eabi/bin/../lib/gcc/arm-none-eabi/13.2.1/thumb/v7-a/nofp/libgcc.a(_arm_muldf3.o)
 .bss           0x60056b08        0x0 /home/mustafa/arm-gnu-toolchain-13.2.rel1-x86_64-arm-none-eabi/arm-gnu-toolchain-13.2.Rel1-x86_64-arm-none-eabi/bin/../lib/gcc/arm-none-eabi/13.2.1/thumb/v7-a/nofp/libgcc.a(_divsi3.o)
 .bss           0x60056b08        0x0 /home/mustafa/arm-gnu-toolchain-13.2.rel1-x86_64-arm-none-eabi/arm-gnu-toolchain-13.2.Rel1-x86_64-arm-none-eabi/bin/../lib/gcc/arm-none-eabi/13.2.1/thumb/v7-a/nofp/libgcc.a(_arm_addsubdf3.o)
 .bss           0x60056b08        0x0 /home/mustafa/arm-gnu-toolchain-13.2.rel1-x86_64-arm-none-eabi/arm-gnu-toolchain-13.2.Rel1-x86_64-arm-none-eabi/bin/../lib/gcc/arm-none-eabi/13.2.1/thumb/v7-a/nofp/libgcc.a(_arm_muldivdf3.o)
 .bss           0x60056b08        0x0 /home/mustafa/arm-gnu-toolchain-13.2.rel1-x86_64-arm-none-eabi/arm-gnu-toolchain-13.2.Rel1-x86_64-arm-none-eabi/bin/../lib/gcc/arm-none-eabi/13.2.1/thumb/v7-a/nofp/libgcc.a(_arm_cmpdf2.o)
 .bss           0x60056b08        0x0 /home/mustafa/arm-gnu-toolchain-13.2.rel1-x86_64-arm-none-eabi/arm-gnu-toolchain-13.2.Rel1-x86_64-arm-none-eabi/bin/../lib/gcc/arm-none-eabi/13.2.1/thumb/v7-a/nofp/libgcc.a(_arm_unorddf2.o)
 .bss           0x60056b08        0x0 /home/mustafa/arm-gnu-toolchain-13.2.rel1-x86_64-arm-none-eabi/arm-gnu-toolchain-13.2.Rel1-x86_64-arm-none-eabi/bin/../lib/gcc/arm-none-eabi/13.2.1/thumb/v7-a/nofp/libgcc.a(_arm_fixdfsi.o)
 .bss           0x60056b08        0x0 /home/mustafa/arm-gnu-toolchain-13.2.rel1-x86_64-arm-none-eabi/arm-gnu-toolchain-13.2.Rel1-x86_64-arm-none-eabi/bin/../lib/gcc/arm-none-eabi/13.2.1/thumb/v7-a/nofp/libgcc.a(_aeabi_ldivmod.o)
 .bss           0x60056b08        0x0 /home/mustafa/arm-gnu-toolchain-13.2.rel1-x86_64-arm-none-eabi/arm-gnu-toolchain-13.2.Rel1-x86_64-arm-none-eabi/bin/../lib/gcc/arm-none-eabi/13.2.1/thumb/v7-a/nofp/libgcc.a(_aeabi_uldivmod.o)
 .bss           0x60056b08        0x0 /home/mustafa/arm-gnu-toolchain-13.2.rel1-x86_64-arm-none-eabi/arm-gnu-toolchain-13.2.Rel1-x86_64-arm-none-eabi/bin/../lib/gcc/arm-none-eabi/13.2.1/thumb/v7-a/nofp/libgcc.a(_udivmoddi4.o)
 .bss           0x60056b08        0x0 /home/mustafa/arm-gnu-toolchain-13.2.rel1-x86_64-arm-none-eabi/arm-gnu-toolchain-13.2.Rel1-x86_64-arm-none-eabi/bin/../lib/gcc/arm-none-eabi/13.2.1/../../../../arm-none-eabi/lib/thumb/v7-a/nofp/libnosys.a(getpid.o)
 .bss           0x60056b08        0x0 /home/mustafa/arm-gnu-toolchain-13.2.rel1-x86_64-arm-none-eabi/arm-gnu-toolchain-13.2.Rel1-x86_64-arm-none-eabi/bin/../lib/gcc/arm-none-eabi/13.2.1/../../../../arm-none-eabi/lib/thumb/v7-a/nofp/libnosys.a(kill.o)
 *(.bss*)
 .bss.__malloc_current_mallinfo
                0x60056b08       0x28 /home/mustafa/arm-gnu-toolchain-13.2.rel1-x86_64-arm-none-eabi/arm-gnu-toolchain-13.2.Rel1-x86_64-arm-none-eabi/bin/../lib/gcc/arm-none-eabi/13.2.1/../../../../arm-none-eabi/lib/thumb/v7-a/nofp/libg.a(libc_a-mallocr.o)
                0x60056b08                __malloc_current_mallinfo
 .bss.__malloc_max_total_mem
                0x60056b30        0x4 /home/mustafa/arm-gnu-toolchain-13.2.rel1-x86_64-arm-none-eabi/arm-gnu-toolchain-13.2.Rel1-x86_64-arm-none-eabi/bin/../lib/gcc/arm-none-eabi/13.2.1/../../../../arm-none-eabi/lib/thumb/v7-a/nofp/libg.a(libc_a-mallocr.o)
                0x60056b30                __malloc_max_total_mem
 .bss.__malloc_max_sbrked_mem
                0x60056b34        0x4 /home/mustafa/arm-gnu-toolchain-13.2.rel1-x86_64-arm-none-eabi/arm-gnu-toolchain-13.2.Rel1-x86_64-arm-none-eabi/bin/../lib/gcc/arm-none-eabi/13.2.1/../../../../arm-none-eabi/lib/thumb/v7-a/nofp/libg.a(libc_a-mallocr.o)
                0x60056b34                __malloc_max_sbrked_mem
 .bss.__malloc_top_pad
                0x60056b38        0x4 /home/mustafa/arm-gnu-toolchain-13.2.rel1-x86_64-arm-none-eabi/arm-gnu-toolchain-13.2.Rel1-x86_64-arm-none-eabi/bin/../lib/gcc/arm-none-eabi/13.2.1/../../../../arm-none-eabi/lib/thumb/v7-a/nofp/libg.a(libc_a-mallocr.o)
                0x60056b38                __malloc_top_pad
 .bss.__atexit  0x60056b3c        0x4 /home/mustafa/arm-gnu-toolchain-13.2.rel1-x86_64-arm-none-eabi/arm-gnu-toolchain-13.2.Rel1-x86_64-arm-none-eabi/bin/../lib/gcc/arm-none-eabi/13.2.1/../../../../arm-none-eabi/lib/thumb/v7-a/nofp/libg.a(libc_a-__call_atexit.o)
                0x60056b3c                __atexit
 .bss.prev_tzenv
                0x60056b40        0x4 /home/mustafa/arm-gnu-toolchain-13.2.rel1-x86_64-arm-none-eabi/arm-gnu-toolchain-13.2.Rel1-x86_64-arm-none-eabi/bin/../lib/gcc/arm-none-eabi/13.2.1/../../../../arm-none-eabi/lib/thumb/v7-a/nofp/libg.a(libc_a-tzset_r.o)
 .bss.__tzname_dst
                0x60056b44        0xc /home/mustafa/arm-gnu-toolchain-13.2.rel1-x86_64-arm-none-eabi/arm-gnu-toolchain-13.2.Rel1-x86_64-arm-none-eabi/bin/../lib/gcc/arm-none-eabi/13.2.1/../../../../arm-none-eabi/lib/thumb/v7-a/nofp/libg.a(libc_a-tzset_r.o)
 .bss.__tzname_std
                0x60056b50        0xc /home/mustafa/arm-gnu-toolchain-13.2.rel1-x86_64-arm-none-eabi/arm-gnu-toolchain-13.2.Rel1-x86_64-arm-none-eabi/bin/../lib/gcc/arm-none-eabi/13.2.1/../../../../arm-none-eabi/lib/thumb/v7-a/nofp/libg.a(libc_a-tzset_r.o)
 .bss._timezone
                0x60056b5c        0x4 /home/mustafa/arm-gnu-toolchain-13.2.rel1-x86_64-arm-none-eabi/arm-gnu-toolchain-13.2.Rel1-x86_64-arm-none-eabi/bin/../lib/gcc/arm-none-eabi/13.2.1/../../../../arm-none-eabi/lib/thumb/v7-a/nofp/libg.a(libc_a-tzvars.o)
                0x60056b5c                _timezone
 .bss._daylight
                0x60056b60        0x4 /home/mustafa/arm-gnu-toolchain-13.2.rel1-x86_64-arm-none-eabi/arm-gnu-toolchain-13.2.Rel1-x86_64-arm-none-eabi/bin/../lib/gcc/arm-none-eabi/13.2.1/../../../../arm-none-eabi/lib/thumb/v7-a/nofp/libg.a(libc_a-tzvars.o)
                0x60056b60                _daylight
 .bss.__lock___arc4random_mutex
                0x60056b64        0x1 /home/mustafa/arm-gnu-toolchain-13.2.rel1-x86_64-arm-none-eabi/arm-gnu-toolchain-13.2.Rel1-x86_64-arm-none-eabi/bin/../lib/gcc/arm-none-eabi/13.2.1/../../../../arm-none-eabi/lib/thumb/v7-a/nofp/libg.a(libc_a-lock.o)
                0x60056b64                __lock___arc4random_mutex
 *fill*         0x60056b65        0x3 
 .bss.__lock___dd_hash_mutex
                0x60056b68        0x1 /home/mustafa/arm-gnu-toolchain-13.2.rel1-x86_64-arm-none-eabi/arm-gnu-toolchain-13.2.Rel1-x86_64-arm-none-eabi/bin/../lib/gcc/arm-none-eabi/13.2.1/../../../../arm-none-eabi/lib/thumb/v7-a/nofp/libg.a(libc_a-lock.o)
                0x60056b68                __lock___dd_hash_mutex
 *fill*         0x60056b69        0x3 
 .bss.__lock___tz_mutex
                0x60056b6c        0x1 /home/mustafa/arm-gnu-toolchain-13.2.rel1-x86_64-arm-none-eabi/arm-gnu-toolchain-13.2.Rel1-x86_64-arm-none-eabi/bin/../lib/gcc/arm-none-eabi/13.2.1/../../../../arm-none-eabi/lib/thumb/v7-a/nofp/libg.a(libc_a-lock.o)
                0x60056b6c                __lock___tz_mutex
 *fill*         0x60056b6d        0x3 
 .bss.__lock___env_recursive_mutex
                0x60056b70        0x1 /home/mustafa/arm-gnu-toolchain-13.2.rel1-x86_64-arm-none-eabi/arm-gnu-toolchain-13.2.Rel1-x86_64-arm-none-eabi/bin/../lib/gcc/arm-none-eabi/13.2.1/../../../../arm-none-eabi/lib/thumb/v7-a/nofp/libg.a(libc_a-lock.o)
                0x60056b70                __lock___env_recursive_mutex
 *fill*         0x60056b71        0x3 
 .bss.__lock___malloc_recursive_mutex
                0x60056b74        0x1 /home/mustafa/arm-gnu-toolchain-13.2.rel1-x86_64-arm-none-eabi/arm-gnu-toolchain-13.2.Rel1-x86_64-arm-none-eabi/bin/../lib/gcc/arm-none-eabi/13.2.1/../../../../arm-none-eabi/lib/thumb/v7-a/nofp/libg.a(libc_a-lock.o)
                0x60056b74                __lock___malloc_recursive_mutex
 *fill*         0x60056b75        0x3 
 .bss.__lock___at_quick_exit_mutex
                0x60056b78        0x1 /home/mustafa/arm-gnu-toolchain-13.2.rel1-x86_64-arm-none-eabi/arm-gnu-toolchain-13.2.Rel1-x86_64-arm-none-eabi/bin/../lib/gcc/arm-none-eabi/13.2.1/../../../../arm-none-eabi/lib/thumb/v7-a/nofp/libg.a(libc_a-lock.o)
                0x60056b78                __lock___at_quick_exit_mutex
 *fill*         0x60056b79        0x3 
 .bss.__lock___atexit_recursive_mutex
                0x60056b7c        0x1 /home/mustafa/arm-gnu-toolchain-13.2.rel1-x86_64-arm-none-eabi/arm-gnu-toolchain-13.2.Rel1-x86_64-arm-none-eabi/bin/../lib/gcc/arm-none-eabi/13.2.1/../../../../arm-none-eabi/lib/thumb/v7-a/nofp/libg.a(libc_a-lock.o)
                0x60056b7c                __lock___atexit_recursive_mutex
 *fill*         0x60056b7d        0x3 
 .bss.__lock___sfp_recursive_mutex
                0x60056b80        0x1 /home/mustafa/arm-gnu-toolchain-13.2.rel1-x86_64-arm-none-eabi/arm-gnu-toolchain-13.2.Rel1-x86_64-arm-none-eabi/bin/../lib/gcc/arm-none-eabi/13.2.1/../../../../arm-none-eabi/lib/thumb/v7-a/nofp/libg.a(libc_a-lock.o)
                0x60056b80                __lock___sfp_recursive_mutex
 *fill*         0x60056b81        0x3 
 .bss.saved_categories.0
                0x60056b84       0xe0 /home/mustafa/arm-gnu-toolchain-13.2.rel1-x86_64-arm-none-eabi/arm-gnu-toolchain-13.2.Rel1-x86_64-arm-none-eabi/bin/../lib/gcc/arm-none-eabi/13.2.1/../../../../arm-none-eabi/lib/thumb/v7-a/nofp/libg.a(libc_a-locale.o)
 .bss.new_categories.1
                0x60056c64       0xe0 /home/mustafa/arm-gnu-toolchain-13.2.rel1-x86_64-arm-none-eabi/arm-gnu-toolchain-13.2.Rel1-x86_64-arm-none-eabi/bin/../lib/gcc/arm-none-eabi/13.2.1/../../../../arm-none-eabi/lib/thumb/v7-a/nofp/libg.a(libc_a-locale.o)
 .bss._PathLocale
                0x60056d44        0x4 /home/mustafa/arm-gnu-toolchain-13.2.rel1-x86_64-arm-none-eabi/arm-gnu-toolchain-13.2.Rel1-x86_64-arm-none-eabi/bin/../lib/gcc/arm-none-eabi/13.2.1/../../../../arm-none-eabi/lib/thumb/v7-a/nofp/libg.a(libc_a-locale.o)
                0x60056d44                _PathLocale
 .bss.__sf      0x60056d48      0x138 /home/mustafa/arm-gnu-toolchain-13.2.rel1-x86_64-arm-none-eabi/arm-gnu-toolchain-13.2.Rel1-x86_64-arm-none-eabi/bin/../lib/gcc/arm-none-eabi/13.2.1/../../../../arm-none-eabi/lib/thumb/v7-a/nofp/libg.a(libc_a-findfp.o)
                0x60056d48                __sf
 .bss.__stdio_exit_handler
                0x60056e80        0x4 /home/mustafa/arm-gnu-toolchain-13.2.rel1-x86_64-arm-none-eabi/arm-gnu-toolchain-13.2.Rel1-x86_64-arm-none-eabi/bin/../lib/gcc/arm-none-eabi/13.2.1/../../../../arm-none-eabi/lib/thumb/v7-a/nofp/libg.a(libc_a-findfp.o)
                0x60056e80                __stdio_exit_handler
 .bss.__atexit0
                0x60056e84      0x190 /home/mustafa/arm-gnu-toolchain-13.2.rel1-x86_64-arm-none-eabi/arm-gnu-toolchain-13.2.Rel1-x86_64-arm-none-eabi/bin/../lib/gcc/arm-none-eabi/13.2.1/../../../../arm-none-eabi/lib/thumb/v7-a/nofp/libg.a(libc_a-__atexit.o)
                0x60056e84                __atexit0
 .bss.errno     0x60057014        0x4 /home/mustafa/arm-gnu-toolchain-13.2.rel1-x86_64-arm-none-eabi/arm-gnu-toolchain-13.2.Rel1-x86_64-arm-none-eabi/bin/../lib/gcc/arm-none-eabi/13.2.1/../../../../arm-none-eabi/lib/thumb/v7-a/nofp/libg.a(libc_a-reent.o)
                0x60057014                errno
 .bss.initial_env
                0x60057018        0x4 /home/mustafa/arm-gnu-toolchain-13.2.rel1-x86_64-arm-none-eabi/arm-gnu-toolchain-13.2.Rel1-x86_64-arm-none-eabi/bin/../lib/gcc/arm-none-eabi/13.2.1/../../../../arm-none-eabi/lib/thumb/v7-a/nofp/libg.a(libc_a-environ.o)
 *(COMMON)
                0x6005701c                        . = ALIGN (0x4)
                0x6005701c                        _end_bss = .
                0x6005701c                        . = ALIGN (0x4)

.heap           0x6005701c   0xa00000
                0x6005701c                        __end__ = .
                0x6005701c                        PROVIDE (end = .)
                [!provide]                        PROVIDE (_heap_start = end)
                0x6005701c                        PROVIDE (_HEAP_START = end)
                0x60a5701c                        . = (. + heap_size)
 *fill*         0x6005701c   0xa00000 
                [!provide]                        PROVIDE (_heap_end = .)
                0x60a5701c                        PROVIDE (_HEAP_MAX = .)

.ARM.attributes
                0x00000000       0x2f
 *(.ARM.attributes)
 .ARM.attributes
                0x00000000       0x14 obj/startup.o
 .ARM.attributes
                0x00000014       0x33 obj/diskio.o
 .ARM.attributes
                0x00000047       0x33 obj/ff.o
 .ARM.attributes
                0x0000007a       0x33 obj/ffsystem.o
 .ARM.attributes
                0x000000ad       0x33 obj/ffunicode.o
 .ARM.attributes
                0x000000e0       0x33 obj/gic.o
 .ARM.attributes
                0x00000113       0x33 obj/interrupt.o
 .ARM.attributes
                0x00000146       0x33 obj/kernel.o
 .ARM.attributes
                0x00000179       0x33 obj/pl011.o
 .ARM.attributes
                0x000001ac       0x33 obj/pl031.o
 .ARM.attributes
                0x000001df       0x33 obj/pl041.o
 .ARM.attributes
                0x00000212       0x33 obj/pl050.o
 .ARM.attributes
                0x00000245       0x33 obj/pl111.o
 .ARM.attributes
                0x00000278       0x33 obj/pl181.o
 .ARM.attributes
                0x000002ab       0x33 obj/sp804.o
 .ARM.attributes
                0x000002de       0x33 obj/syscall.o
 .ARM.attributes
                0x00000311       0x33 obj/ugui.o
 .ARM.attributes
                0x00000344       0x1f /home/mustafa/arm-gnu-toolchain-13.2.rel1-x86_64-arm-none-eabi/arm-gnu-toolchain-13.2.Rel1-x86_64-arm-none-eabi/bin/../lib/gcc/arm-none-eabi/13.2.1/thumb/v7-a/nofp/libgcc.a(_udivsi3.o)
 .ARM.attributes
                0x00000363       0x1f /home/mustafa/arm-gnu-toolchain-13.2.rel1-x86_64-arm-none-eabi/arm-gnu-toolchain-13.2.Rel1-x86_64-arm-none-eabi/bin/../lib/gcc/arm-none-eabi/13.2.1/thumb/v7-a/nofp/libgcc.a(_dvmd_tls.o)
 .ARM.attributes
                0x00000382       0x2f /home/mustafa/arm-gnu-toolchain-13.2.rel1-x86_64-arm-none-eabi/arm-gnu-toolchain-13.2.Rel1-x86_64-arm-none-eabi/bin/../lib/gcc/arm-none-eabi/13.2.1/../../../../arm-none-eabi/lib/thumb/v7-a/nofp/libg.a(libc_a-exit.o)
 .ARM.attributes
                0x000003b1       0x2f /home/mustafa/arm-gnu-toolchain-13.2.rel1-x86_64-arm-none-eabi/arm-gnu-toolchain-13.2.Rel1-x86_64-arm-none-eabi/bin/../lib/gcc/arm-none-eabi/13.2.1/../../../../arm-none-eabi/lib/thumb/v7-a/nofp/libg.a(libc_a-asctime.o)
 .ARM.attributes
                0x000003e0       0x2f /home/mustafa/arm-gnu-toolchain-13.2.rel1-x86_64-arm-none-eabi/arm-gnu-toolchain-13.2.Rel1-x86_64-arm-none-eabi/bin/../lib/gcc/arm-none-eabi/13.2.1/../../../../arm-none-eabi/lib/thumb/v7-a/nofp/libg.a(libc_a-asctime_r.o)
 .ARM.attributes
                0x0000040f       0x2f /home/mustafa/arm-gnu-toolchain-13.2.rel1-x86_64-arm-none-eabi/arm-gnu-toolchain-13.2.Rel1-x86_64-arm-none-eabi/bin/../lib/gcc/arm-none-eabi/13.2.1/../../../../arm-none-eabi/lib/thumb/v7-a/nofp/libg.a(libc_a-gmtime.o)
 .ARM.attributes
                0x0000043e       0x2f /home/mustafa/arm-gnu-toolchain-13.2.rel1-x86_64-arm-none-eabi/arm-gnu-toolchain-13.2.Rel1-x86_64-arm-none-eabi/bin/../lib/gcc/arm-none-eabi/13.2.1/../../../../arm-none-eabi/lib/thumb/v7-a/nofp/libg.a(libc_a-gmtime_r.o)
 .ARM.attributes
                0x0000046d       0x2f /home/mustafa/arm-gnu-toolchain-13.2.rel1-x86_64-arm-none-eabi/arm-gnu-toolchain-13.2.Rel1-x86_64-arm-none-eabi/bin/../lib/gcc/arm-none-eabi/13.2.1/../../../../arm-none-eabi/lib/thumb/v7-a/nofp/libg.a(libc_a-lcltime.o)
 .ARM.attributes
                0x0000049c       0x2f /home/mustafa/arm-gnu-toolchain-13.2.rel1-x86_64-arm-none-eabi/arm-gnu-toolchain-13.2.Rel1-x86_64-arm-none-eabi/bin/../lib/gcc/arm-none-eabi/13.2.1/../../../../arm-none-eabi/lib/thumb/v7-a/nofp/libg.a(libc_a-lcltime_r.o)
 .ARM.attributes
                0x000004cb       0x2f /home/mustafa/arm-gnu-toolchain-13.2.rel1-x86_64-arm-none-eabi/arm-gnu-toolchain-13.2.Rel1-x86_64-arm-none-eabi/bin/../lib/gcc/arm-none-eabi/13.2.1/../../../../arm-none-eabi/lib/thumb/v7-a/nofp/libg.a(libc_a-month_lengths.o)
 .ARM.attributes
                0x000004fa       0x2f /home/mustafa/arm-gnu-toolchain-13.2.rel1-x86_64-arm-none-eabi/arm-gnu-toolchain-13.2.Rel1-x86_64-arm-none-eabi/bin/../lib/gcc/arm-none-eabi/13.2.1/../../../../arm-none-eabi/lib/thumb/v7-a/nofp/libg.a(libc_a-siprintf.o)
 .ARM.attributes
                0x00000529       0x2f /home/mustafa/arm-gnu-toolchain-13.2.rel1-x86_64-arm-none-eabi/arm-gnu-toolchain-13.2.Rel1-x86_64-arm-none-eabi/bin/../lib/gcc/arm-none-eabi/13.2.1/../../../../arm-none-eabi/lib/thumb/v7-a/nofp/libg.a(libc_a-errno.o)
 .ARM.attributes
                0x00000558       0x2f /home/mustafa/arm-gnu-toolchain-13.2.rel1-x86_64-arm-none-eabi/arm-gnu-toolchain-13.2.Rel1-x86_64-arm-none-eabi/bin/../lib/gcc/arm-none-eabi/13.2.1/../../../../arm-none-eabi/lib/thumb/v7-a/nofp/libg.a(libc_a-svfiprintf.o)
 .ARM.attributes
                0x00000587       0x2f /home/mustafa/arm-gnu-toolchain-13.2.rel1-x86_64-arm-none-eabi/arm-gnu-toolchain-13.2.Rel1-x86_64-arm-none-eabi/bin/../lib/gcc/arm-none-eabi/13.2.1/../../../../arm-none-eabi/lib/thumb/v7-a/nofp/libg.a(libc_a-tzcalc_limits.o)
 .ARM.attributes
                0x000005b6       0x2f /home/mustafa/arm-gnu-toolchain-13.2.rel1-x86_64-arm-none-eabi/arm-gnu-toolchain-13.2.Rel1-x86_64-arm-none-eabi/bin/../lib/gcc/arm-none-eabi/13.2.1/../../../../arm-none-eabi/lib/thumb/v7-a/nofp/libg.a(libc_a-tzlock.o)
 .ARM.attributes
                0x000005e5       0x2f /home/mustafa/arm-gnu-toolchain-13.2.rel1-x86_64-arm-none-eabi/arm-gnu-toolchain-13.2.Rel1-x86_64-arm-none-eabi/bin/../lib/gcc/arm-none-eabi/13.2.1/../../../../arm-none-eabi/lib/thumb/v7-a/nofp/libg.a(libc_a-malloc.o)
 .ARM.attributes
                0x00000614       0x2f /home/mustafa/arm-gnu-toolchain-13.2.rel1-x86_64-arm-none-eabi/arm-gnu-toolchain-13.2.Rel1-x86_64-arm-none-eabi/bin/../lib/gcc/arm-none-eabi/13.2.1/../../../../arm-none-eabi/lib/thumb/v7-a/nofp/libg.a(libc_a-mallocr.o)
 .ARM.attributes
                0x00000643       0x2f /home/mustafa/arm-gnu-toolchain-13.2.rel1-x86_64-arm-none-eabi/arm-gnu-toolchain-13.2.Rel1-x86_64-arm-none-eabi/bin/../lib/gcc/arm-none-eabi/13.2.1/../../../../arm-none-eabi/lib/thumb/v7-a/nofp/libg.a(libc_a-__call_atexit.o)
 .ARM.attributes
                0x00000672       0x2f /home/mustafa/arm-gnu-toolchain-13.2.rel1-x86_64-arm-none-eabi/arm-gnu-toolchain-13.2.Rel1-x86_64-arm-none-eabi/bin/../lib/gcc/arm-none-eabi/13.2.1/../../../../arm-none-eabi/lib/thumb/v7-a/nofp/libg.a(libc_a-memcmp.o)
 .ARM.attributes
                0x000006a1       0x2f /home/mustafa/arm-gnu-toolchain-13.2.rel1-x86_64-arm-none-eabi/arm-gnu-toolchain-13.2.Rel1-x86_64-arm-none-eabi/bin/../lib/gcc/arm-none-eabi/13.2.1/../../../../arm-none-eabi/lib/thumb/v7-a/nofp/libg.a(libc_a-memmove.o)
 .ARM.attributes
                0x000006d0       0x2f /home/mustafa/arm-gnu-toolchain-13.2.rel1-x86_64-arm-none-eabi/arm-gnu-toolchain-13.2.Rel1-x86_64-arm-none-eabi/bin/../lib/gcc/arm-none-eabi/13.2.1/../../../../arm-none-eabi/lib/thumb/v7-a/nofp/libg.a(libc_a-memset.o)
 .ARM.attributes
                0x000006ff       0x2f /home/mustafa/arm-gnu-toolchain-13.2.rel1-x86_64-arm-none-eabi/arm-gnu-toolchain-13.2.Rel1-x86_64-arm-none-eabi/bin/../lib/gcc/arm-none-eabi/13.2.1/../../../../arm-none-eabi/lib/thumb/v7-a/nofp/libg.a(libc_a-wcrtomb.o)
 .ARM.attributes
                0x0000072e       0x2f /home/mustafa/arm-gnu-toolchain-13.2.rel1-x86_64-arm-none-eabi/arm-gnu-toolchain-13.2.Rel1-x86_64-arm-none-eabi/bin/../lib/gcc/arm-none-eabi/13.2.1/../../../../arm-none-eabi/lib/thumb/v7-a/nofp/libg.a(libc_a-tzset.o)
 .ARM.attributes
                0x0000075d       0x2f /home/mustafa/arm-gnu-toolchain-13.2.rel1-x86_64-arm-none-eabi/arm-gnu-toolchain-13.2.Rel1-x86_64-arm-none-eabi/bin/../lib/gcc/arm-none-eabi/13.2.1/../../../../arm-none-eabi/lib/thumb/v7-a/nofp/libg.a(libc_a-tzset_r.o)
 .ARM.attributes
                0x0000078c       0x2f /home/mustafa/arm-gnu-toolchain-13.2.rel1-x86_64-arm-none-eabi/arm-gnu-toolchain-13.2.Rel1-x86_64-arm-none-eabi/bin/../lib/gcc/arm-none-eabi/13.2.1/../../../../arm-none-eabi/lib/thumb/v7-a/nofp/libg.a(libc_a-tzvars.o)
 .ARM.attributes
                0x000007bb       0x2f /home/mustafa/arm-gnu-toolchain-13.2.rel1-x86_64-arm-none-eabi/arm-gnu-toolchain-13.2.Rel1-x86_64-arm-none-eabi/bin/../lib/gcc/arm-none-eabi/13.2.1/../../../../arm-none-eabi/lib/thumb/v7-a/nofp/libg.a(libc_a-fini.o)
 .ARM.attributes
                0x000007ea       0x2f /home/mustafa/arm-gnu-toolchain-13.2.rel1-x86_64-arm-none-eabi/arm-gnu-toolchain-13.2.Rel1-x86_64-arm-none-eabi/bin/../lib/gcc/arm-none-eabi/13.2.1/../../../../arm-none-eabi/lib/thumb/v7-a/nofp/libg.a(libc_a-lock.o)
 .ARM.attributes
                0x00000819       0x2f /home/mustafa/arm-gnu-toolchain-13.2.rel1-x86_64-arm-none-eabi/arm-gnu-toolchain-13.2.Rel1-x86_64-arm-none-eabi/bin/../lib/gcc/arm-none-eabi/13.2.1/../../../../arm-none-eabi/lib/thumb/v7-a/nofp/libg.a(libc_a-locale.o)
 .ARM.attributes
                0x00000848       0x2f /home/mustafa/arm-gnu-toolchain-13.2.rel1-x86_64-arm-none-eabi/arm-gnu-toolchain-13.2.Rel1-x86_64-arm-none-eabi/bin/../lib/gcc/arm-none-eabi/13.2.1/../../../../arm-none-eabi/lib/thumb/v7-a/nofp/libg.a(libc_a-localeconv.o)
 .ARM.attributes
                0x00000877       0x2f /home/mustafa/arm-gnu-toolchain-13.2.rel1-x86_64-arm-none-eabi/arm-gnu-toolchain-13.2.Rel1-x86_64-arm-none-eabi/bin/../lib/gcc/arm-none-eabi/13.2.1/../../../../arm-none-eabi/lib/thumb/v7-a/nofp/libg.a(libc_a-sysconf.o)
 .ARM.attributes
                0x000008a6       0x1d /home/mustafa/arm-gnu-toolchain-13.2.rel1-x86_64-arm-none-eabi/arm-gnu-toolchain-13.2.Rel1-x86_64-arm-none-eabi/bin/../lib/gcc/arm-none-eabi/13.2.1/../../../../arm-none-eabi/lib/thumb/v7-a/nofp/libg.a(libc_a-strcmp.o)
 .ARM.attributes
                0x000008c3       0x2f /home/mustafa/arm-gnu-toolchain-13.2.rel1-x86_64-arm-none-eabi/arm-gnu-toolchain-13.2.Rel1-x86_64-arm-none-eabi/bin/../lib/gcc/arm-none-eabi/13.2.1/../../../../arm-none-eabi/lib/thumb/v7-a/nofp/libg.a(libc_a-printf.o)
 .ARM.attributes
                0x000008f2       0x2f /home/mustafa/arm-gnu-toolchain-13.2.rel1-x86_64-arm-none-eabi/arm-gnu-toolchain-13.2.Rel1-x86_64-arm-none-eabi/bin/../lib/gcc/arm-none-eabi/13.2.1/../../../../arm-none-eabi/lib/thumb/v7-a/nofp/libg.a(libc_a-strcpy.o)
 .ARM.attributes
                0x00000921       0x2f /home/mustafa/arm-gnu-toolchain-13.2.rel1-x86_64-arm-none-eabi/arm-gnu-toolchain-13.2.Rel1-x86_64-arm-none-eabi/bin/../lib/gcc/arm-none-eabi/13.2.1/../../../../arm-none-eabi/lib/thumb/v7-a/nofp/libg.a(libc_a-putchar.o)
 .ARM.attributes
                0x00000950       0x2f /home/mustafa/arm-gnu-toolchain-13.2.rel1-x86_64-arm-none-eabi/arm-gnu-toolchain-13.2.Rel1-x86_64-arm-none-eabi/bin/../lib/gcc/arm-none-eabi/13.2.1/../../../../arm-none-eabi/lib/thumb/v7-a/nofp/libg.a(libc_a-puts.o)
 .ARM.attributes
                0x0000097f       0x2f /home/mustafa/arm-gnu-toolchain-13.2.rel1-x86_64-arm-none-eabi/arm-gnu-toolchain-13.2.Rel1-x86_64-arm-none-eabi/bin/../lib/gcc/arm-none-eabi/13.2.1/../../../../arm-none-eabi/lib/thumb/v7-a/nofp/libg.a(libc_a-mlock.o)
 .ARM.attributes
                0x000009ae       0x2f /home/mustafa/arm-gnu-toolchain-13.2.rel1-x86_64-arm-none-eabi/arm-gnu-toolchain-13.2.Rel1-x86_64-arm-none-eabi/bin/../lib/gcc/arm-none-eabi/13.2.1/../../../../arm-none-eabi/lib/thumb/v7-a/nofp/libg.a(libc_a-atexit.o)
 .ARM.attributes
                0x000009dd       0x2f /home/mustafa/arm-gnu-toolchain-13.2.rel1-x86_64-arm-none-eabi/arm-gnu-toolchain-13.2.Rel1-x86_64-arm-none-eabi/bin/../lib/gcc/arm-none-eabi/13.2.1/../../../../arm-none-eabi/lib/thumb/v7-a/nofp/libg.a(libc_a-strchr.o)
 .ARM.attributes
                0x00000a0c       0x2f /home/mustafa/arm-gnu-toolchain-13.2.rel1-x86_64-arm-none-eabi/arm-gnu-toolchain-13.2.Rel1-x86_64-arm-none-eabi/bin/../lib/gcc/arm-none-eabi/13.2.1/../../../../arm-none-eabi/lib/thumb/v7-a/nofp/libg.a(libc_a-wcsrtombs.o)
 .ARM.attributes
                0x00000a3b       0x2f /home/mustafa/arm-gnu-toolchain-13.2.rel1-x86_64-arm-none-eabi/arm-gnu-toolchain-13.2.Rel1-x86_64-arm-none-eabi/bin/../lib/gcc/arm-none-eabi/13.2.1/../../../../arm-none-eabi/lib/thumb/v7-a/nofp/libg.a(libc_a-ctype_.o)
 .ARM.attributes
                0x00000a6a       0x2f /home/mustafa/arm-gnu-toolchain-13.2.rel1-x86_64-arm-none-eabi/arm-gnu-toolchain-13.2.Rel1-x86_64-arm-none-eabi/bin/../lib/gcc/arm-none-eabi/13.2.1/../../../../arm-none-eabi/lib/thumb/v7-a/nofp/libg.a(libc_a-impure.o)
 .ARM.attributes
                0x00000a99       0x2f /home/mustafa/arm-gnu-toolchain-13.2.rel1-x86_64-arm-none-eabi/arm-gnu-toolchain-13.2.Rel1-x86_64-arm-none-eabi/bin/../lib/gcc/arm-none-eabi/13.2.1/../../../../arm-none-eabi/lib/thumb/v7-a/nofp/libg.a(libc_a-findfp.o)
 .ARM.attributes
                0x00000ac8       0x1b /home/mustafa/arm-gnu-toolchain-13.2.rel1-x86_64-arm-none-eabi/arm-gnu-toolchain-13.2.Rel1-x86_64-arm-none-eabi/bin/../lib/gcc/arm-none-eabi/13.2.1/../../../../arm-none-eabi/lib/thumb/v7-a/nofp/libg.a(libc_a-memchr.o)
 .ARM.attributes
                0x00000ae3       0x19 /home/mustafa/arm-gnu-toolchain-13.2.rel1-x86_64-arm-none-eabi/arm-gnu-toolchain-13.2.Rel1-x86_64-arm-none-eabi/bin/../lib/gcc/arm-none-eabi/13.2.1/../../../../arm-none-eabi/lib/thumb/v7-a/nofp/libg.a(libc_a-memcpy.o)
 .ARM.attributes
                0x00000afc       0x2f /home/mustafa/arm-gnu-toolchain-13.2.rel1-x86_64-arm-none-eabi/arm-gnu-toolchain-13.2.Rel1-x86_64-arm-none-eabi/bin/../lib/gcc/arm-none-eabi/13.2.1/../../../../arm-none-eabi/lib/thumb/v7-a/nofp/libg.a(libc_a-reallocr.o)
 .ARM.attributes
                0x00000b2b       0x2f /home/mustafa/arm-gnu-toolchain-13.2.rel1-x86_64-arm-none-eabi/arm-gnu-toolchain-13.2.Rel1-x86_64-arm-none-eabi/bin/../lib/gcc/arm-none-eabi/13.2.1/../../../../arm-none-eabi/lib/thumb/v7-a/nofp/libg.a(libc_a-strlcpy.o)
 .ARM.attributes
                0x00000b5a       0x2f /home/mustafa/arm-gnu-toolchain-13.2.rel1-x86_64-arm-none-eabi/arm-gnu-toolchain-13.2.Rel1-x86_64-arm-none-eabi/bin/../lib/gcc/arm-none-eabi/13.2.1/../../../../arm-none-eabi/lib/thumb/v7-a/nofp/libg.a(libc_a-freer.o)
 .ARM.attributes
                0x00000b89       0x2f /home/mustafa/arm-gnu-toolchain-13.2.rel1-x86_64-arm-none-eabi/arm-gnu-toolchain-13.2.Rel1-x86_64-arm-none-eabi/bin/../lib/gcc/arm-none-eabi/13.2.1/../../../../arm-none-eabi/lib/thumb/v7-a/nofp/libg.a(libc_a-strtol.o)
 .ARM.attributes
                0x00000bb8       0x2f /home/mustafa/arm-gnu-toolchain-13.2.rel1-x86_64-arm-none-eabi/arm-gnu-toolchain-13.2.Rel1-x86_64-arm-none-eabi/bin/../lib/gcc/arm-none-eabi/13.2.1/../../../../arm-none-eabi/lib/thumb/v7-a/nofp/libg.a(libc_a-strtoul.o)
 .ARM.attributes
                0x00000be7       0x2f /home/mustafa/arm-gnu-toolchain-13.2.rel1-x86_64-arm-none-eabi/arm-gnu-toolchain-13.2.Rel1-x86_64-arm-none-eabi/bin/../lib/gcc/arm-none-eabi/13.2.1/../../../../arm-none-eabi/lib/thumb/v7-a/nofp/libg.a(libc_a-strncasecmp.o)
 .ARM.attributes
                0x00000c16       0x2f /home/mustafa/arm-gnu-toolchain-13.2.rel1-x86_64-arm-none-eabi/arm-gnu-toolchain-13.2.Rel1-x86_64-arm-none-eabi/bin/../lib/gcc/arm-none-eabi/13.2.1/../../../../arm-none-eabi/lib/thumb/v7-a/nofp/libg.a(libc_a-getenv_r.o)
 .ARM.attributes
                0x00000c45       0x2f /home/mustafa/arm-gnu-toolchain-13.2.rel1-x86_64-arm-none-eabi/arm-gnu-toolchain-13.2.Rel1-x86_64-arm-none-eabi/bin/../lib/gcc/arm-none-eabi/13.2.1/../../../../arm-none-eabi/lib/thumb/v7-a/nofp/libg.a(libc_a-strncpy.o)
 .ARM.attributes
                0x00000c74       0x2f /home/mustafa/arm-gnu-toolchain-13.2.rel1-x86_64-arm-none-eabi/arm-gnu-toolchain-13.2.Rel1-x86_64-arm-none-eabi/bin/../lib/gcc/arm-none-eabi/13.2.1/../../../../arm-none-eabi/lib/thumb/v7-a/nofp/libg.a(libc_a-gettzinfo.o)
 .ARM.attributes
                0x00000ca3       0x19 /home/mustafa/arm-gnu-toolchain-13.2.rel1-x86_64-arm-none-eabi/arm-gnu-toolchain-13.2.Rel1-x86_64-arm-none-eabi/bin/../lib/gcc/arm-none-eabi/13.2.1/../../../../arm-none-eabi/lib/thumb/v7-a/nofp/libg.a(libc_a-strlen.o)
 .ARM.attributes
                0x00000cbc       0x2f /home/mustafa/arm-gnu-toolchain-13.2.rel1-x86_64-arm-none-eabi/arm-gnu-toolchain-13.2.Rel1-x86_64-arm-none-eabi/bin/../lib/gcc/arm-none-eabi/13.2.1/../../../../arm-none-eabi/lib/thumb/v7-a/nofp/libg.a(libc_a-stdio.o)
 .ARM.attributes
                0x00000ceb       0x2f /home/mustafa/arm-gnu-toolchain-13.2.rel1-x86_64-arm-none-eabi/arm-gnu-toolchain-13.2.Rel1-x86_64-arm-none-eabi/bin/../lib/gcc/arm-none-eabi/13.2.1/../../../../arm-none-eabi/lib/thumb/v7-a/nofp/libg.a(libc_a-wctomb_r.o)
 .ARM.attributes
                0x00000d1a       0x2f /home/mustafa/arm-gnu-toolchain-13.2.rel1-x86_64-arm-none-eabi/arm-gnu-toolchain-13.2.Rel1-x86_64-arm-none-eabi/bin/../lib/gcc/arm-none-eabi/13.2.1/../../../../arm-none-eabi/lib/thumb/v7-a/nofp/libg.a(libc_a-sbrkr.o)
 .ARM.attributes
                0x00000d49       0x2f /home/mustafa/arm-gnu-toolchain-13.2.rel1-x86_64-arm-none-eabi/arm-gnu-toolchain-13.2.Rel1-x86_64-arm-none-eabi/bin/../lib/gcc/arm-none-eabi/13.2.1/../../../../arm-none-eabi/lib/thumb/v7-a/nofp/libg.a(libc_a-fvwrite.o)
 .ARM.attributes
                0x00000d78       0x2f /home/mustafa/arm-gnu-toolchain-13.2.rel1-x86_64-arm-none-eabi/arm-gnu-toolchain-13.2.Rel1-x86_64-arm-none-eabi/bin/../lib/gcc/arm-none-eabi/13.2.1/../../../../arm-none-eabi/lib/thumb/v7-a/nofp/libg.a(libc_a-fwalk.o)
 .ARM.attributes
                0x00000da7       0x2f /home/mustafa/arm-gnu-toolchain-13.2.rel1-x86_64-arm-none-eabi/arm-gnu-toolchain-13.2.Rel1-x86_64-arm-none-eabi/bin/../lib/gcc/arm-none-eabi/13.2.1/../../../../arm-none-eabi/lib/thumb/v7-a/nofp/libg.a(libc_a-writer.o)
 .ARM.attributes
                0x00000dd6       0x2f /home/mustafa/arm-gnu-toolchain-13.2.rel1-x86_64-arm-none-eabi/arm-gnu-toolchain-13.2.Rel1-x86_64-arm-none-eabi/bin/../lib/gcc/arm-none-eabi/13.2.1/../../../../arm-none-eabi/lib/thumb/v7-a/nofp/libg.a(libc_a-siscanf.o)
 .ARM.attributes
                0x00000e05       0x2f /home/mustafa/arm-gnu-toolchain-13.2.rel1-x86_64-arm-none-eabi/arm-gnu-toolchain-13.2.Rel1-x86_64-arm-none-eabi/bin/../lib/gcc/arm-none-eabi/13.2.1/../../../../arm-none-eabi/lib/thumb/v7-a/nofp/libg.a(libc_a-svfiscanf.o)
 .ARM.attributes
                0x00000e34       0x2f /home/mustafa/arm-gnu-toolchain-13.2.rel1-x86_64-arm-none-eabi/arm-gnu-toolchain-13.2.Rel1-x86_64-arm-none-eabi/bin/../lib/gcc/arm-none-eabi/13.2.1/../../../../arm-none-eabi/lib/thumb/v7-a/nofp/libg.a(libc_a-vfprintf.o)
 .ARM.attributes
                0x00000e63       0x2f /home/mustafa/arm-gnu-toolchain-13.2.rel1-x86_64-arm-none-eabi/arm-gnu-toolchain-13.2.Rel1-x86_64-arm-none-eabi/bin/../lib/gcc/arm-none-eabi/13.2.1/../../../../arm-none-eabi/lib/thumb/v7-a/nofp/libg.a(libc_a-vfiprintf.o)
 .ARM.attributes
                0x00000e92       0x2f /home/mustafa/arm-gnu-toolchain-13.2.rel1-x86_64-arm-none-eabi/arm-gnu-toolchain-13.2.Rel1-x86_64-arm-none-eabi/bin/../lib/gcc/arm-none-eabi/13.2.1/../../../../arm-none-eabi/lib/thumb/v7-a/nofp/libg.a(libc_a-__atexit.o)
 .ARM.attributes
                0x00000ec1       0x2f /home/mustafa/arm-gnu-toolchain-13.2.rel1-x86_64-arm-none-eabi/arm-gnu-toolchain-13.2.Rel1-x86_64-arm-none-eabi/bin/../lib/gcc/arm-none-eabi/13.2.1/../../../../arm-none-eabi/lib/thumb/v7-a/nofp/libg.a(libc_a-mbtowc_r.o)
 .ARM.attributes
                0x00000ef0       0x2f /home/mustafa/arm-gnu-toolchain-13.2.rel1-x86_64-arm-none-eabi/arm-gnu-toolchain-13.2.Rel1-x86_64-arm-none-eabi/bin/../lib/gcc/arm-none-eabi/13.2.1/../../../../arm-none-eabi/lib/thumb/v7-a/nofp/libg.a(libc_a-mbrtowc.o)
 .ARM.attributes
                0x00000f1f       0x2f /home/mustafa/arm-gnu-toolchain-13.2.rel1-x86_64-arm-none-eabi/arm-gnu-toolchain-13.2.Rel1-x86_64-arm-none-eabi/bin/../lib/gcc/arm-none-eabi/13.2.1/../../../../arm-none-eabi/lib/thumb/v7-a/nofp/libg.a(libc_a-strcasecmp.o)
 .ARM.attributes
                0x00000f4e       0x2f /home/mustafa/arm-gnu-toolchain-13.2.rel1-x86_64-arm-none-eabi/arm-gnu-toolchain-13.2.Rel1-x86_64-arm-none-eabi/bin/../lib/gcc/arm-none-eabi/13.2.1/../../../../arm-none-eabi/lib/thumb/v7-a/nofp/libg.a(libc_a-strcat.o)
 .ARM.attributes
                0x00000f7d       0x2f /home/mustafa/arm-gnu-toolchain-13.2.rel1-x86_64-arm-none-eabi/arm-gnu-toolchain-13.2.Rel1-x86_64-arm-none-eabi/bin/../lib/gcc/arm-none-eabi/13.2.1/../../../../arm-none-eabi/lib/thumb/v7-a/nofp/libg.a(libc_a-fclose.o)
 .ARM.attributes
                0x00000fac       0x2f /home/mustafa/arm-gnu-toolchain-13.2.rel1-x86_64-arm-none-eabi/arm-gnu-toolchain-13.2.Rel1-x86_64-arm-none-eabi/bin/../lib/gcc/arm-none-eabi/13.2.1/../../../../arm-none-eabi/lib/thumb/v7-a/nofp/libg.a(libc_a-wsetup.o)
 .ARM.attributes
                0x00000fdb       0x2f /home/mustafa/arm-gnu-toolchain-13.2.rel1-x86_64-arm-none-eabi/arm-gnu-toolchain-13.2.Rel1-x86_64-arm-none-eabi/bin/../lib/gcc/arm-none-eabi/13.2.1/../../../../arm-none-eabi/lib/thumb/v7-a/nofp/libg.a(libc_a-makebuf.o)
 .ARM.attributes
                0x0000100a       0x2f /home/mustafa/arm-gnu-toolchain-13.2.rel1-x86_64-arm-none-eabi/arm-gnu-toolchain-13.2.Rel1-x86_64-arm-none-eabi/bin/../lib/gcc/arm-none-eabi/13.2.1/../../../../arm-none-eabi/lib/thumb/v7-a/nofp/libg.a(libc_a-putc.o)
 .ARM.attributes
                0x00001039       0x2f /home/mustafa/arm-gnu-toolchain-13.2.rel1-x86_64-arm-none-eabi/arm-gnu-toolchain-13.2.Rel1-x86_64-arm-none-eabi/bin/../lib/gcc/arm-none-eabi/13.2.1/../../../../arm-none-eabi/lib/thumb/v7-a/nofp/libg.a(libc_a-wcsnrtombs.o)
 .ARM.attributes
                0x00001068       0x2f /home/mustafa/arm-gnu-toolchain-13.2.rel1-x86_64-arm-none-eabi/arm-gnu-toolchain-13.2.Rel1-x86_64-arm-none-eabi/bin/../lib/gcc/arm-none-eabi/13.2.1/../../../../arm-none-eabi/lib/thumb/v7-a/nofp/libg.a(libc_a-realloc.o)
 .ARM.attributes
                0x00001097       0x2f /home/mustafa/arm-gnu-toolchain-13.2.rel1-x86_64-arm-none-eabi/arm-gnu-toolchain-13.2.Rel1-x86_64-arm-none-eabi/bin/../lib/gcc/arm-none-eabi/13.2.1/../../../../arm-none-eabi/lib/thumb/v7-a/nofp/libg.a(libc_a-dtoa.o)
 .ARM.attributes
                0x000010c6       0x2f /home/mustafa/arm-gnu-toolchain-13.2.rel1-x86_64-arm-none-eabi/arm-gnu-toolchain-13.2.Rel1-x86_64-arm-none-eabi/bin/../lib/gcc/arm-none-eabi/13.2.1/../../../../arm-none-eabi/lib/thumb/v7-a/nofp/libg.a(libc_a-closer.o)
 .ARM.attributes
                0x000010f5       0x2f /home/mustafa/arm-gnu-toolchain-13.2.rel1-x86_64-arm-none-eabi/arm-gnu-toolchain-13.2.Rel1-x86_64-arm-none-eabi/bin/../lib/gcc/arm-none-eabi/13.2.1/../../../../arm-none-eabi/lib/thumb/v7-a/nofp/libg.a(libc_a-reent.o)
 .ARM.attributes
                0x00001124       0x2f /home/mustafa/arm-gnu-toolchain-13.2.rel1-x86_64-arm-none-eabi/arm-gnu-toolchain-13.2.Rel1-x86_64-arm-none-eabi/bin/../lib/gcc/arm-none-eabi/13.2.1/../../../../arm-none-eabi/lib/thumb/v7-a/nofp/libg.a(libc_a-fflush.o)
 .ARM.attributes
                0x00001153       0x2f /home/mustafa/arm-gnu-toolchain-13.2.rel1-x86_64-arm-none-eabi/arm-gnu-toolchain-13.2.Rel1-x86_64-arm-none-eabi/bin/../lib/gcc/arm-none-eabi/13.2.1/../../../../arm-none-eabi/lib/thumb/v7-a/nofp/libg.a(libc_a-sccl.o)
 .ARM.attributes
                0x00001182       0x2f /home/mustafa/arm-gnu-toolchain-13.2.rel1-x86_64-arm-none-eabi/arm-gnu-toolchain-13.2.Rel1-x86_64-arm-none-eabi/bin/../lib/gcc/arm-none-eabi/13.2.1/../../../../arm-none-eabi/lib/thumb/v7-a/nofp/libg.a(libm_a-s_frexp.o)
 .ARM.attributes
                0x000011b1       0x2f /home/mustafa/arm-gnu-toolchain-13.2.rel1-x86_64-arm-none-eabi/arm-gnu-toolchain-13.2.Rel1-x86_64-arm-none-eabi/bin/../lib/gcc/arm-none-eabi/13.2.1/../../../../arm-none-eabi/lib/thumb/v7-a/nofp/libg.a(libc_a-environ.o)
 .ARM.attributes
                0x000011e0       0x2f /home/mustafa/arm-gnu-toolchain-13.2.rel1-x86_64-arm-none-eabi/arm-gnu-toolchain-13.2.Rel1-x86_64-arm-none-eabi/bin/../lib/gcc/arm-none-eabi/13.2.1/../../../../arm-none-eabi/lib/thumb/v7-a/nofp/libg.a(libc_a-envlock.o)
 .ARM.attributes
                0x0000120f       0x2f /home/mustafa/arm-gnu-toolchain-13.2.rel1-x86_64-arm-none-eabi/arm-gnu-toolchain-13.2.Rel1-x86_64-arm-none-eabi/bin/../lib/gcc/arm-none-eabi/13.2.1/../../../../arm-none-eabi/lib/thumb/v7-a/nofp/libg.a(libc_a-strncmp.o)
 .ARM.attributes
                0x0000123e       0x2f /home/mustafa/arm-gnu-toolchain-13.2.rel1-x86_64-arm-none-eabi/arm-gnu-toolchain-13.2.Rel1-x86_64-arm-none-eabi/bin/../lib/gcc/arm-none-eabi/13.2.1/../../../../arm-none-eabi/lib/thumb/v7-a/nofp/libg.a(libc_a-strtoll.o)
 .ARM.attributes
                0x0000126d       0x2f /home/mustafa/arm-gnu-toolchain-13.2.rel1-x86_64-arm-none-eabi/arm-gnu-toolchain-13.2.Rel1-x86_64-arm-none-eabi/bin/../lib/gcc/arm-none-eabi/13.2.1/../../../../arm-none-eabi/lib/thumb/v7-a/nofp/libg.a(libc_a-strtoull.o)
 .ARM.attributes
                0x0000129c       0x2f /home/mustafa/arm-gnu-toolchain-13.2.rel1-x86_64-arm-none-eabi/arm-gnu-toolchain-13.2.Rel1-x86_64-arm-none-eabi/bin/../lib/gcc/arm-none-eabi/13.2.1/../../../../arm-none-eabi/lib/thumb/v7-a/nofp/libg.a(libc_a-fstatr.o)
 .ARM.attributes
                0x000012cb       0x2f /home/mustafa/arm-gnu-toolchain-13.2.rel1-x86_64-arm-none-eabi/arm-gnu-toolchain-13.2.Rel1-x86_64-arm-none-eabi/bin/../lib/gcc/arm-none-eabi/13.2.1/../../../../arm-none-eabi/lib/thumb/v7-a/nofp/libg.a(libc_a-isattyr.o)
 .ARM.attributes
                0x000012fa       0x2f /home/mustafa/arm-gnu-toolchain-13.2.rel1-x86_64-arm-none-eabi/arm-gnu-toolchain-13.2.Rel1-x86_64-arm-none-eabi/bin/../lib/gcc/arm-none-eabi/13.2.1/../../../../arm-none-eabi/lib/thumb/v7-a/nofp/libg.a(libc_a-lseekr.o)
 .ARM.attributes
                0x00001329       0x2f /home/mustafa/arm-gnu-toolchain-13.2.rel1-x86_64-arm-none-eabi/arm-gnu-toolchain-13.2.Rel1-x86_64-arm-none-eabi/bin/../lib/gcc/arm-none-eabi/13.2.1/../../../../arm-none-eabi/lib/thumb/v7-a/nofp/libg.a(libc_a-readr.o)
 .ARM.attributes
                0x00001358       0x2f /home/mustafa/arm-gnu-toolchain-13.2.rel1-x86_64-arm-none-eabi/arm-gnu-toolchain-13.2.Rel1-x86_64-arm-none-eabi/bin/../lib/gcc/arm-none-eabi/13.2.1/../../../../arm-none-eabi/lib/thumb/v7-a/nofp/libg.a(libc_a-iswspace.o)
 .ARM.attributes
                0x00001387       0x2f /home/mustafa/arm-gnu-toolchain-13.2.rel1-x86_64-arm-none-eabi/arm-gnu-toolchain-13.2.Rel1-x86_64-arm-none-eabi/bin/../lib/gcc/arm-none-eabi/13.2.1/../../../../arm-none-eabi/lib/thumb/v7-a/nofp/libg.a(libc_a-iswspace_l.o)
 .ARM.attributes
                0x000013b6       0x2f /home/mustafa/arm-gnu-toolchain-13.2.rel1-x86_64-arm-none-eabi/arm-gnu-toolchain-13.2.Rel1-x86_64-arm-none-eabi/bin/../lib/gcc/arm-none-eabi/13.2.1/../../../../arm-none-eabi/lib/thumb/v7-a/nofp/libg.a(libc_a-fputwc.o)
 .ARM.attributes
                0x000013e5       0x2f /home/mustafa/arm-gnu-toolchain-13.2.rel1-x86_64-arm-none-eabi/arm-gnu-toolchain-13.2.Rel1-x86_64-arm-none-eabi/bin/../lib/gcc/arm-none-eabi/13.2.1/../../../../arm-none-eabi/lib/thumb/v7-a/nofp/libg.a(libc_a-ungetc.o)
 .ARM.attributes
                0x00001414       0x2f /home/mustafa/arm-gnu-toolchain-13.2.rel1-x86_64-arm-none-eabi/arm-gnu-toolchain-13.2.Rel1-x86_64-arm-none-eabi/bin/../lib/gcc/arm-none-eabi/13.2.1/../../../../arm-none-eabi/lib/thumb/v7-a/nofp/libg.a(libc_a-categories.o)
 .ARM.attributes
                0x00001443       0x2f /home/mustafa/arm-gnu-toolchain-13.2.rel1-x86_64-arm-none-eabi/arm-gnu-toolchain-13.2.Rel1-x86_64-arm-none-eabi/bin/../lib/gcc/arm-none-eabi/13.2.1/../../../../arm-none-eabi/lib/thumb/v7-a/nofp/libg.a(libc_a-jp2uc.o)
 .ARM.attributes
                0x00001472       0x2f /home/mustafa/arm-gnu-toolchain-13.2.rel1-x86_64-arm-none-eabi/arm-gnu-toolchain-13.2.Rel1-x86_64-arm-none-eabi/bin/../lib/gcc/arm-none-eabi/13.2.1/../../../../arm-none-eabi/lib/thumb/v7-a/nofp/libg.a(libc_a-wbuf.o)
 .ARM.attributes
                0x000014a1       0x2f /home/mustafa/arm-gnu-toolchain-13.2.rel1-x86_64-arm-none-eabi/arm-gnu-toolchain-13.2.Rel1-x86_64-arm-none-eabi/bin/../lib/gcc/arm-none-eabi/13.2.1/../../../../arm-none-eabi/lib/thumb/v7-a/nofp/libg.a(libc_a-assert.o)
 .ARM.attributes
                0x000014d0       0x2f /home/mustafa/arm-gnu-toolchain-13.2.rel1-x86_64-arm-none-eabi/arm-gnu-toolchain-13.2.Rel1-x86_64-arm-none-eabi/bin/../lib/gcc/arm-none-eabi/13.2.1/../../../../arm-none-eabi/lib/thumb/v7-a/nofp/libg.a(libc_a-mprec.o)
 .ARM.attributes
                0x000014ff       0x2f /home/mustafa/arm-gnu-toolchain-13.2.rel1-x86_64-arm-none-eabi/arm-gnu-toolchain-13.2.Rel1-x86_64-arm-none-eabi/bin/../lib/gcc/arm-none-eabi/13.2.1/../../../../arm-none-eabi/lib/thumb/v7-a/nofp/libg.a(libc_a-callocr.o)
 .ARM.attributes
                0x0000152e       0x2f /home/mustafa/arm-gnu-toolchain-13.2.rel1-x86_64-arm-none-eabi/arm-gnu-toolchain-13.2.Rel1-x86_64-arm-none-eabi/bin/../lib/gcc/arm-none-eabi/13.2.1/../../../../arm-none-eabi/lib/thumb/v7-a/nofp/libg.a(libc_a-fiprintf.o)
 .ARM.attributes
                0x0000155d       0x2f /home/mustafa/arm-gnu-toolchain-13.2.rel1-x86_64-arm-none-eabi/arm-gnu-toolchain-13.2.Rel1-x86_64-arm-none-eabi/bin/../lib/gcc/arm-none-eabi/13.2.1/../../../../arm-none-eabi/lib/thumb/v7-a/nofp/libg.a(libc_a-abort.o)
 .ARM.attributes
                0x0000158c       0x2f /home/mustafa/arm-gnu-toolchain-13.2.rel1-x86_64-arm-none-eabi/arm-gnu-toolchain-13.2.Rel1-x86_64-arm-none-eabi/bin/../lib/gcc/arm-none-eabi/13.2.1/../../../../arm-none-eabi/lib/thumb/v7-a/nofp/libg.a(libc_a-signal.o)
 .ARM.attributes
                0x000015bb       0x2f /home/mustafa/arm-gnu-toolchain-13.2.rel1-x86_64-arm-none-eabi/arm-gnu-toolchain-13.2.Rel1-x86_64-arm-none-eabi/bin/../lib/gcc/arm-none-eabi/13.2.1/../../../../arm-none-eabi/lib/thumb/v7-a/nofp/libg.a(libc_a-signalr.o)
 .ARM.attributes
                0x000015ea       0x1f /home/mustafa/arm-gnu-toolchain-13.2.rel1-x86_64-arm-none-eabi/arm-gnu-toolchain-13.2.Rel1-x86_64-arm-none-eabi/bin/../lib/gcc/arm-none-eabi/13.2.1/thumb/v7-a/nofp/libgcc.a(_arm_muldf3.o)
 .ARM.attributes
                0x00001609       0x1f /home/mustafa/arm-gnu-toolchain-13.2.rel1-x86_64-arm-none-eabi/arm-gnu-toolchain-13.2.Rel1-x86_64-arm-none-eabi/bin/../lib/gcc/arm-none-eabi/13.2.1/thumb/v7-a/nofp/libgcc.a(_divsi3.o)
 .ARM.attributes
                0x00001628       0x1f /home/mustafa/arm-gnu-toolchain-13.2.rel1-x86_64-arm-none-eabi/arm-gnu-toolchain-13.2.Rel1-x86_64-arm-none-eabi/bin/../lib/gcc/arm-none-eabi/13.2.1/thumb/v7-a/nofp/libgcc.a(_arm_addsubdf3.o)
 .ARM.attributes
                0x00001647       0x1f /home/mustafa/arm-gnu-toolchain-13.2.rel1-x86_64-arm-none-eabi/arm-gnu-toolchain-13.2.Rel1-x86_64-arm-none-eabi/bin/../lib/gcc/arm-none-eabi/13.2.1/thumb/v7-a/nofp/libgcc.a(_arm_muldivdf3.o)
 .ARM.attributes
                0x00001666       0x1f /home/mustafa/arm-gnu-toolchain-13.2.rel1-x86_64-arm-none-eabi/arm-gnu-toolchain-13.2.Rel1-x86_64-arm-none-eabi/bin/../lib/gcc/arm-none-eabi/13.2.1/thumb/v7-a/nofp/libgcc.a(_arm_cmpdf2.o)
 .ARM.attributes
                0x00001685       0x1f /home/mustafa/arm-gnu-toolchain-13.2.rel1-x86_64-arm-none-eabi/arm-gnu-toolchain-13.2.Rel1-x86_64-arm-none-eabi/bin/../lib/gcc/arm-none-eabi/13.2.1/thumb/v7-a/nofp/libgcc.a(_arm_unorddf2.o)
 .ARM.attributes
                0x000016a4       0x1f /home/mustafa/arm-gnu-toolchain-13.2.rel1-x86_64-arm-none-eabi/arm-gnu-toolchain-13.2.Rel1-x86_64-arm-none-eabi/bin/../lib/gcc/arm-none-eabi/13.2.1/thumb/v7-a/nofp/libgcc.a(_arm_fixdfsi.o)
 .ARM.attributes
                0x000016c3       0x1f /home/mustafa/arm-gnu-toolchain-13.2.rel1-x86_64-arm-none-eabi/arm-gnu-toolchain-13.2.Rel1-x86_64-arm-none-eabi/bin/../lib/gcc/arm-none-eabi/13.2.1/thumb/v7-a/nofp/libgcc.a(_aeabi_ldivmod.o)
 .ARM.attributes
                0x000016e2       0x1f /home/mustafa/arm-gnu-toolchain-13.2.rel1-x86_64-arm-none-eabi/arm-gnu-toolchain-13.2.Rel1-x86_64-arm-none-eabi/bin/../lib/gcc/arm-none-eabi/13.2.1/thumb/v7-a/nofp/libgcc.a(_aeabi_uldivmod.o)
 .ARM.attributes
                0x00001701       0x2f /home/mustafa/arm-gnu-toolchain-13.2.rel1-x86_64-arm-none-eabi/arm-gnu-toolchain-13.2.Rel1-x86_64-arm-none-eabi/bin/../lib/gcc/arm-none-eabi/13.2.1/thumb/v7-a/nofp/libgcc.a(_udivmoddi4.o)
 .ARM.attributes
                0x00001730       0x2f /home/mustafa/arm-gnu-toolchain-13.2.rel1-x86_64-arm-none-eabi/arm-gnu-toolchain-13.2.Rel1-x86_64-arm-none-eabi/bin/../lib/gcc/arm-none-eabi/13.2.1/../../../../arm-none-eabi/lib/thumb/v7-a/nofp/libnosys.a(getpid.o)
 .ARM.attributes
                0x0000175f       0x2f /home/mustafa/arm-gnu-toolchain-13.2.rel1-x86_64-arm-none-eabi/arm-gnu-toolchain-13.2.Rel1-x86_64-arm-none-eabi/bin/../lib/gcc/arm-none-eabi/13.2.1/../../../../arm-none-eabi/lib/thumb/v7-a/nofp/libnosys.a(kill.o)

.stack          0x60a5701c    0x60000
                0x60a5701c                        statckSTART = .
                0x60a6701c                        . = (. + 0x10000)
 *fill*         0x60a5701c    0x10000 
                0x60a6701c                        . = ALIGN (0x4)
                0x60a6701c                        stackSVC = .
                0x60a7701c                        . = (. + 0x10000)
 *fill*         0x60a6701c    0x10000 
                0x60a7701c                        . = ALIGN (0x4)
                0x60a7701c                        stackUND = .
                0x60a8701c                        . = (. + 0x10000)
 *fill*         0x60a7701c    0x10000 
                0x60a8701c                        . = ALIGN (0x4)
                0x60a8701c                        stackABT = .
                0x60a9701c                        . = (. + 0x10000)
 *fill*         0x60a8701c    0x10000 
                0x60a9701c                        . = ALIGN (0x4)
                0x60a9701c                        stackIRQ = .
                0x60aa701c                        . = (. + 0x10000)
 *fill*         0x60a9701c    0x10000 
                0x60aa701c                        . = ALIGN (0x4)
                0x60aa701c                        stackFIQ = .
                0x60ab701c                        . = (. + 0x10000)
 *fill*         0x60aa701c    0x10000 
                0x60ab701c                        . = ALIGN (0x4)
                0x60ab701c                        stackUSR = .
                0x60ab701c                        stack_end = .
                0x60ab701c                        _end = .
OUTPUT(bin/kernel.elf elf32-littlearm)
LOAD linker stubs

.debug_info     0x00000000     0x8a77
 .debug_info    0x00000000      0x41f obj/diskio.o
 .debug_info    0x0000041f     0x19c1 obj/ff.o
 .debug_info    0x00001de0       0x6c obj/ffsystem.o
 .debug_info    0x00001e4c       0x6c obj/ffunicode.o
 .debug_info    0x00001eb8      0x7f9 obj/gic.o
 .debug_info    0x000026b1      0x2ab obj/interrupt.o
 .debug_info    0x0000295c      0x688 obj/kernel.o
 .debug_info    0x00002fe4      0x1fd obj/pl011.o
 .debug_info    0x000031e1      0x138 obj/pl031.o
 .debug_info    0x00003319      0x94b obj/pl041.o
 .debug_info    0x00003c64      0x29e obj/pl050.o
 .debug_info    0x00003f02      0x796 obj/pl111.o
 .debug_info    0x00004698      0x513 obj/pl181.o
 .debug_info    0x00004bab      0x3e3 obj/sp804.o
 .debug_info    0x00004f8e      0x4f1 obj/syscall.o
 .debug_info    0x0000547f     0x35f8 obj/ugui.o

.debug_abbrev   0x00000000     0x174c
 .debug_abbrev  0x00000000      0x1d8 obj/diskio.o
 .debug_abbrev  0x000001d8      0x23a obj/ff.o
 .debug_abbrev  0x00000412       0x26 obj/ffsystem.o
 .debug_abbrev  0x00000438       0x26 obj/ffunicode.o
 .debug_abbrev  0x0000045e      0x1ea obj/gic.o
 .debug_abbrev  0x00000648      0x168 obj/interrupt.o
 .debug_abbrev  0x000007b0      0x1d8 obj/kernel.o
 .debug_abbrev  0x00000988       0xf0 obj/pl011.o
 .debug_abbrev  0x00000a78       0x9d obj/pl031.o
 .debug_abbrev  0x00000b15      0x23d obj/pl041.o
 .debug_abbrev  0x00000d52      0x12c obj/pl050.o
 .debug_abbrev  0x00000e7e      0x1aa obj/pl111.o
 .debug_abbrev  0x00001028      0x1ab obj/pl181.o
 .debug_abbrev  0x000011d3      0x184 obj/sp804.o
 .debug_abbrev  0x00001357      0x19c obj/syscall.o
 .debug_abbrev  0x000014f3      0x259 obj/ugui.o

.debug_aranges  0x00000000      0x1f0
 .debug_aranges
                0x00000000       0x20 obj/diskio.o
 .debug_aranges
                0x00000020       0x20 obj/ff.o
 .debug_aranges
                0x00000040       0x18 obj/ffsystem.o
 .debug_aranges
                0x00000058       0x18 obj/ffunicode.o
 .debug_aranges
                0x00000070       0x20 obj/gic.o
 .debug_aranges
                0x00000090       0x20 obj/interrupt.o
 .debug_aranges
                0x000000b0       0x20 obj/kernel.o
 .debug_aranges
                0x000000d0       0x20 obj/pl011.o
 .debug_aranges
                0x000000f0       0x20 obj/pl031.o
 .debug_aranges
                0x00000110       0x20 obj/pl041.o
 .debug_aranges
                0x00000130       0x20 obj/pl050.o
 .debug_aranges
                0x00000150       0x20 obj/pl111.o
 .debug_aranges
                0x00000170       0x20 obj/pl181.o
 .debug_aranges
                0x00000190       0x20 obj/sp804.o
 .debug_aranges
                0x000001b0       0x20 obj/syscall.o
 .debug_aranges
                0x000001d0       0x20 obj/ugui.o

.debug_line     0x00000000     0x6b72
 .debug_line    0x00000000      0x2d1 obj/diskio.o
 .debug_line    0x000002d1     0x211c obj/ff.o
 .debug_line    0x000023ed       0x2f obj/ffsystem.o
 .debug_line    0x0000241c       0x30 obj/ffunicode.o
 .debug_line    0x0000244c      0x4a1 obj/gic.o
 .debug_line    0x000028ed      0x13d obj/interrupt.o
 .debug_line    0x00002a2a      0x2be obj/kernel.o
 .debug_line    0x00002ce8      0x1a0 obj/pl011.o
 .debug_line    0x00002e88      0x185 obj/pl031.o
 .debug_line    0x0000300d      0x410 obj/pl041.o
 .debug_line    0x0000341d      0x1cb obj/pl050.o
 .debug_line    0x000035e8      0x1d7 obj/pl111.o
 .debug_line    0x000037bf      0x480 obj/pl181.o
 .debug_line    0x00003c3f      0x2b0 obj/sp804.o
 .debug_line    0x00003eef      0x381 obj/syscall.o
 .debug_line    0x00004270     0x2902 obj/ugui.o

.debug_str      0x00000000     0x2198
 .debug_str     0x00000000     0x2198 obj/diskio.o
                                0x2c0 (size before relaxing)
 .debug_str     0x00002198      0x6eb obj/ff.o
 .debug_str     0x00002198      0x12f obj/ffsystem.o
 .debug_str     0x00002198      0x130 obj/ffunicode.o
 .debug_str     0x00002198      0x695 obj/gic.o
 .debug_str     0x00002198      0x3a7 obj/interrupt.o
 .debug_str     0x00002198      0x4b3 obj/kernel.o
 .debug_str     0x00002198      0x1b0 obj/pl011.o
 .debug_str     0x00002198      0x181 obj/pl031.o
 .debug_str     0x00002198      0x6a6 obj/pl041.o
 .debug_str     0x00002198      0x362 obj/pl050.o
 .debug_str     0x00002198      0x3a3 obj/pl111.o
 .debug_str     0x00002198      0x4ac obj/pl181.o
 .debug_str     0x00002198      0x40b obj/sp804.o
 .debug_str     0x00002198      0x32a obj/syscall.o
 .debug_str     0x00002198      0xef1 obj/ugui.o

.comment        0x00000000       0x44
 .comment       0x00000000       0x44 obj/diskio.o
                                 0x45 (size before relaxing)
 .comment       0x00000044       0x45 obj/ff.o
 .comment       0x00000044       0x45 obj/ffsystem.o
 .comment       0x00000044       0x45 obj/ffunicode.o
 .comment       0x00000044       0x45 obj/gic.o
 .comment       0x00000044       0x45 obj/interrupt.o
 .comment       0x00000044       0x45 obj/kernel.o
 .comment       0x00000044       0x45 obj/pl011.o
 .comment       0x00000044       0x45 obj/pl031.o
 .comment       0x00000044       0x45 obj/pl041.o
 .comment       0x00000044       0x45 obj/pl050.o
 .comment       0x00000044       0x45 obj/pl111.o
 .comment       0x00000044       0x45 obj/pl181.o
 .comment       0x00000044       0x45 obj/sp804.o
 .comment       0x00000044       0x45 obj/syscall.o
 .comment       0x00000044       0x45 obj/ugui.o

.debug_frame    0x00000000     0x45d8
 .debug_frame   0x00000000       0xd4 obj/diskio.o
 .debug_frame   0x000000d4      0x64c obj/ff.o
 .debug_frame   0x00000720      0x350 obj/gic.o
 .debug_frame   0x00000a70       0xec obj/interrupt.o
 .debug_frame   0x00000b5c       0x2c obj/kernel.o
 .debug_frame   0x00000b88       0x30 obj/pl011.o
 .debug_frame   0x00000bb8       0x30 obj/pl031.o
 .debug_frame   0x00000be8      0x19c obj/pl041.o
 .debug_frame   0x00000d84       0x48 obj/pl050.o
 .debug_frame   0x00000dcc       0x70 obj/pl111.o
 .debug_frame   0x00000e3c       0xd4 obj/pl181.o
 .debug_frame   0x00000f10       0x50 obj/sp804.o
 .debug_frame   0x00000f60      0x144 obj/syscall.o
 .debug_frame   0x000010a4     0x10fc obj/ugui.o
 .debug_frame   0x000021a0       0x20 /home/mustafa/arm-gnu-toolchain-13.2.rel1-x86_64-arm-none-eabi/arm-gnu-toolchain-13.2.Rel1-x86_64-arm-none-eabi/bin/../lib/gcc/arm-none-eabi/13.2.1/thumb/v7-a/nofp/libgcc.a(_udivsi3.o)
 .debug_frame   0x000021c0       0x28 /home/mustafa/arm-gnu-toolchain-13.2.rel1-x86_64-arm-none-eabi/arm-gnu-toolchain-13.2.Rel1-x86_64-arm-none-eabi/bin/../lib/gcc/arm-none-eabi/13.2.1/../../../../arm-none-eabi/lib/thumb/v7-a/nofp/libg.a(libc_a-exit.o)
 .debug_frame   0x000021e8       0x20 /home/mustafa/arm-gnu-toolchain-13.2.rel1-x86_64-arm-none-eabi/arm-gnu-toolchain-13.2.Rel1-x86_64-arm-none-eabi/bin/../lib/gcc/arm-none-eabi/13.2.1/../../../../arm-none-eabi/lib/thumb/v7-a/nofp/libg.a(libc_a-asctime.o)
 .debug_frame   0x00002208       0x30 /home/mustafa/arm-gnu-toolchain-13.2.rel1-x86_64-arm-none-eabi/arm-gnu-toolchain-13.2.Rel1-x86_64-arm-none-eabi/bin/../lib/gcc/arm-none-eabi/13.2.1/../../../../arm-none-eabi/lib/thumb/v7-a/nofp/libg.a(libc_a-asctime_r.o)
 .debug_frame   0x00002238       0x20 /home/mustafa/arm-gnu-toolchain-13.2.rel1-x86_64-arm-none-eabi/arm-gnu-toolchain-13.2.Rel1-x86_64-arm-none-eabi/bin/../lib/gcc/arm-none-eabi/13.2.1/../../../../arm-none-eabi/lib/thumb/v7-a/nofp/libg.a(libc_a-gmtime.o)
 .debug_frame   0x00002258       0x2c /home/mustafa/arm-gnu-toolchain-13.2.rel1-x86_64-arm-none-eabi/arm-gnu-toolchain-13.2.Rel1-x86_64-arm-none-eabi/bin/../lib/gcc/arm-none-eabi/13.2.1/../../../../arm-none-eabi/lib/thumb/v7-a/nofp/libg.a(libc_a-gmtime_r.o)
 .debug_frame   0x00002284       0x20 /home/mustafa/arm-gnu-toolchain-13.2.rel1-x86_64-arm-none-eabi/arm-gnu-toolchain-13.2.Rel1-x86_64-arm-none-eabi/bin/../lib/gcc/arm-none-eabi/13.2.1/../../../../arm-none-eabi/lib/thumb/v7-a/nofp/libg.a(libc_a-lcltime.o)
 .debug_frame   0x000022a4       0x30 /home/mustafa/arm-gnu-toolchain-13.2.rel1-x86_64-arm-none-eabi/arm-gnu-toolchain-13.2.Rel1-x86_64-arm-none-eabi/bin/../lib/gcc/arm-none-eabi/13.2.1/../../../../arm-none-eabi/lib/thumb/v7-a/nofp/libg.a(libc_a-lcltime_r.o)
 .debug_frame   0x000022d4       0x74 /home/mustafa/arm-gnu-toolchain-13.2.rel1-x86_64-arm-none-eabi/arm-gnu-toolchain-13.2.Rel1-x86_64-arm-none-eabi/bin/../lib/gcc/arm-none-eabi/13.2.1/../../../../arm-none-eabi/lib/thumb/v7-a/nofp/libg.a(libc_a-siprintf.o)
 .debug_frame   0x00002348       0x20 /home/mustafa/arm-gnu-toolchain-13.2.rel1-x86_64-arm-none-eabi/arm-gnu-toolchain-13.2.Rel1-x86_64-arm-none-eabi/bin/../lib/gcc/arm-none-eabi/13.2.1/../../../../arm-none-eabi/lib/thumb/v7-a/nofp/libg.a(libc_a-errno.o)
 .debug_frame   0x00002368       0x78 /home/mustafa/arm-gnu-toolchain-13.2.rel1-x86_64-arm-none-eabi/arm-gnu-toolchain-13.2.Rel1-x86_64-arm-none-eabi/bin/../lib/gcc/arm-none-eabi/13.2.1/../../../../arm-none-eabi/lib/thumb/v7-a/nofp/libg.a(libc_a-svfiprintf.o)
 .debug_frame   0x000023e0       0x34 /home/mustafa/arm-gnu-toolchain-13.2.rel1-x86_64-arm-none-eabi/arm-gnu-toolchain-13.2.Rel1-x86_64-arm-none-eabi/bin/../lib/gcc/arm-none-eabi/13.2.1/../../../../arm-none-eabi/lib/thumb/v7-a/nofp/libg.a(libc_a-tzcalc_limits.o)
 .debug_frame   0x00002414       0x30 /home/mustafa/arm-gnu-toolchain-13.2.rel1-x86_64-arm-none-eabi/arm-gnu-toolchain-13.2.Rel1-x86_64-arm-none-eabi/bin/../lib/gcc/arm-none-eabi/13.2.1/../../../../arm-none-eabi/lib/thumb/v7-a/nofp/libg.a(libc_a-tzlock.o)
 .debug_frame   0x00002444       0x30 /home/mustafa/arm-gnu-toolchain-13.2.rel1-x86_64-arm-none-eabi/arm-gnu-toolchain-13.2.Rel1-x86_64-arm-none-eabi/bin/../lib/gcc/arm-none-eabi/13.2.1/../../../../arm-none-eabi/lib/thumb/v7-a/nofp/libg.a(libc_a-malloc.o)
 .debug_frame   0x00002474       0x48 /home/mustafa/arm-gnu-toolchain-13.2.rel1-x86_64-arm-none-eabi/arm-gnu-toolchain-13.2.Rel1-x86_64-arm-none-eabi/bin/../lib/gcc/arm-none-eabi/13.2.1/../../../../arm-none-eabi/lib/thumb/v7-a/nofp/libg.a(libc_a-mallocr.o)
 .debug_frame   0x000024bc       0x5c /home/mustafa/arm-gnu-toolchain-13.2.rel1-x86_64-arm-none-eabi/arm-gnu-toolchain-13.2.Rel1-x86_64-arm-none-eabi/bin/../lib/gcc/arm-none-eabi/13.2.1/../../../../arm-none-eabi/lib/thumb/v7-a/nofp/libg.a(libc_a-__call_atexit.o)
 .debug_frame   0x00002518       0x34 /home/mustafa/arm-gnu-toolchain-13.2.rel1-x86_64-arm-none-eabi/arm-gnu-toolchain-13.2.Rel1-x86_64-arm-none-eabi/bin/../lib/gcc/arm-none-eabi/13.2.1/../../../../arm-none-eabi/lib/thumb/v7-a/nofp/libg.a(libc_a-memcmp.o)
 .debug_frame   0x0000254c       0x34 /home/mustafa/arm-gnu-toolchain-13.2.rel1-x86_64-arm-none-eabi/arm-gnu-toolchain-13.2.Rel1-x86_64-arm-none-eabi/bin/../lib/gcc/arm-none-eabi/13.2.1/../../../../arm-none-eabi/lib/thumb/v7-a/nofp/libg.a(libc_a-memmove.o)
 .debug_frame   0x00002580       0x2c /home/mustafa/arm-gnu-toolchain-13.2.rel1-x86_64-arm-none-eabi/arm-gnu-toolchain-13.2.Rel1-x86_64-arm-none-eabi/bin/../lib/gcc/arm-none-eabi/13.2.1/../../../../arm-none-eabi/lib/thumb/v7-a/nofp/libg.a(libc_a-memset.o)
 .debug_frame   0x000025ac       0x58 /home/mustafa/arm-gnu-toolchain-13.2.rel1-x86_64-arm-none-eabi/arm-gnu-toolchain-13.2.Rel1-x86_64-arm-none-eabi/bin/../lib/gcc/arm-none-eabi/13.2.1/../../../../arm-none-eabi/lib/thumb/v7-a/nofp/libg.a(libc_a-wcrtomb.o)
 .debug_frame   0x00002604       0x3c /home/mustafa/arm-gnu-toolchain-13.2.rel1-x86_64-arm-none-eabi/arm-gnu-toolchain-13.2.Rel1-x86_64-arm-none-eabi/bin/../lib/gcc/arm-none-eabi/13.2.1/../../../../arm-none-eabi/lib/thumb/v7-a/nofp/libg.a(libc_a-tzset.o)
 .debug_frame   0x00002640       0x5c /home/mustafa/arm-gnu-toolchain-13.2.rel1-x86_64-arm-none-eabi/arm-gnu-toolchain-13.2.Rel1-x86_64-arm-none-eabi/bin/../lib/gcc/arm-none-eabi/13.2.1/../../../../arm-none-eabi/lib/thumb/v7-a/nofp/libg.a(libc_a-tzset_r.o)
 .debug_frame   0x0000269c       0x34 /home/mustafa/arm-gnu-toolchain-13.2.rel1-x86_64-arm-none-eabi/arm-gnu-toolchain-13.2.Rel1-x86_64-arm-none-eabi/bin/../lib/gcc/arm-none-eabi/13.2.1/../../../../arm-none-eabi/lib/thumb/v7-a/nofp/libg.a(libc_a-fini.o)
 .debug_frame   0x000026d0       0xb0 /home/mustafa/arm-gnu-toolchain-13.2.rel1-x86_64-arm-none-eabi/arm-gnu-toolchain-13.2.Rel1-x86_64-arm-none-eabi/bin/../lib/gcc/arm-none-eabi/13.2.1/../../../../arm-none-eabi/lib/thumb/v7-a/nofp/libg.a(libc_a-lock.o)
 .debug_frame   0x00002780       0xdc /home/mustafa/arm-gnu-toolchain-13.2.rel1-x86_64-arm-none-eabi/arm-gnu-toolchain-13.2.Rel1-x86_64-arm-none-eabi/bin/../lib/gcc/arm-none-eabi/13.2.1/../../../../arm-none-eabi/lib/thumb/v7-a/nofp/libg.a(libc_a-locale.o)
 .debug_frame   0x0000285c       0x40 /home/mustafa/arm-gnu-toolchain-13.2.rel1-x86_64-arm-none-eabi/arm-gnu-toolchain-13.2.Rel1-x86_64-arm-none-eabi/bin/../lib/gcc/arm-none-eabi/13.2.1/../../../../arm-none-eabi/lib/thumb/v7-a/nofp/libg.a(libc_a-localeconv.o)
 .debug_frame   0x0000289c       0x28 /home/mustafa/arm-gnu-toolchain-13.2.rel1-x86_64-arm-none-eabi/arm-gnu-toolchain-13.2.Rel1-x86_64-arm-none-eabi/bin/../lib/gcc/arm-none-eabi/13.2.1/../../../../arm-none-eabi/lib/thumb/v7-a/nofp/libg.a(libc_a-sysconf.o)
 .debug_frame   0x000028c4       0x7c /home/mustafa/arm-gnu-toolchain-13.2.rel1-x86_64-arm-none-eabi/arm-gnu-toolchain-13.2.Rel1-x86_64-arm-none-eabi/bin/../lib/gcc/arm-none-eabi/13.2.1/../../../../arm-none-eabi/lib/thumb/v7-a/nofp/libg.a(libc_a-strcmp.o)
 .debug_frame   0x00002940       0x74 /home/mustafa/arm-gnu-toolchain-13.2.rel1-x86_64-arm-none-eabi/arm-gnu-toolchain-13.2.Rel1-x86_64-arm-none-eabi/bin/../lib/gcc/arm-none-eabi/13.2.1/../../../../arm-none-eabi/lib/thumb/v7-a/nofp/libg.a(libc_a-printf.o)
 .debug_frame   0x000029b4       0x20 /home/mustafa/arm-gnu-toolchain-13.2.rel1-x86_64-arm-none-eabi/arm-gnu-toolchain-13.2.Rel1-x86_64-arm-none-eabi/bin/../lib/gcc/arm-none-eabi/13.2.1/../../../../arm-none-eabi/lib/thumb/v7-a/nofp/libg.a(libc_a-strcpy.o)
 .debug_frame   0x000029d4       0x30 /home/mustafa/arm-gnu-toolchain-13.2.rel1-x86_64-arm-none-eabi/arm-gnu-toolchain-13.2.Rel1-x86_64-arm-none-eabi/bin/../lib/gcc/arm-none-eabi/13.2.1/../../../../arm-none-eabi/lib/thumb/v7-a/nofp/libg.a(libc_a-putchar.o)
 .debug_frame   0x00002a04       0x48 /home/mustafa/arm-gnu-toolchain-13.2.rel1-x86_64-arm-none-eabi/arm-gnu-toolchain-13.2.Rel1-x86_64-arm-none-eabi/bin/../lib/gcc/arm-none-eabi/13.2.1/../../../../arm-none-eabi/lib/thumb/v7-a/nofp/libg.a(libc_a-puts.o)
 .debug_frame   0x00002a4c       0x30 /home/mustafa/arm-gnu-toolchain-13.2.rel1-x86_64-arm-none-eabi/arm-gnu-toolchain-13.2.Rel1-x86_64-arm-none-eabi/bin/../lib/gcc/arm-none-eabi/13.2.1/../../../../arm-none-eabi/lib/thumb/v7-a/nofp/libg.a(libc_a-mlock.o)
 .debug_frame   0x00002a7c       0x20 /home/mustafa/arm-gnu-toolchain-13.2.rel1-x86_64-arm-none-eabi/arm-gnu-toolchain-13.2.Rel1-x86_64-arm-none-eabi/bin/../lib/gcc/arm-none-eabi/13.2.1/../../../../arm-none-eabi/lib/thumb/v7-a/nofp/libg.a(libc_a-atexit.o)
 .debug_frame   0x00002a9c       0x34 /home/mustafa/arm-gnu-toolchain-13.2.rel1-x86_64-arm-none-eabi/arm-gnu-toolchain-13.2.Rel1-x86_64-arm-none-eabi/bin/../lib/gcc/arm-none-eabi/13.2.1/../../../../arm-none-eabi/lib/thumb/v7-a/nofp/libg.a(libc_a-strchr.o)
 .debug_frame   0x00002ad0       0x4c /home/mustafa/arm-gnu-toolchain-13.2.rel1-x86_64-arm-none-eabi/arm-gnu-toolchain-13.2.Rel1-x86_64-arm-none-eabi/bin/../lib/gcc/arm-none-eabi/13.2.1/../../../../arm-none-eabi/lib/thumb/v7-a/nofp/libg.a(libc_a-wcsrtombs.o)
 .debug_frame   0x00002b1c       0x20 /home/mustafa/arm-gnu-toolchain-13.2.rel1-x86_64-arm-none-eabi/arm-gnu-toolchain-13.2.Rel1-x86_64-arm-none-eabi/bin/../lib/gcc/arm-none-eabi/13.2.1/../../../../arm-none-eabi/lib/thumb/v7-a/nofp/libg.a(libc_a-ctype_.o)
 .debug_frame   0x00002b3c      0x13c /home/mustafa/arm-gnu-toolchain-13.2.rel1-x86_64-arm-none-eabi/arm-gnu-toolchain-13.2.Rel1-x86_64-arm-none-eabi/bin/../lib/gcc/arm-none-eabi/13.2.1/../../../../arm-none-eabi/lib/thumb/v7-a/nofp/libg.a(libc_a-findfp.o)
 .debug_frame   0x00002c78       0x58 /home/mustafa/arm-gnu-toolchain-13.2.rel1-x86_64-arm-none-eabi/arm-gnu-toolchain-13.2.Rel1-x86_64-arm-none-eabi/bin/../lib/gcc/arm-none-eabi/13.2.1/../../../../arm-none-eabi/lib/thumb/v7-a/nofp/libg.a(libc_a-reallocr.o)
 .debug_frame   0x00002cd0       0x30 /home/mustafa/arm-gnu-toolchain-13.2.rel1-x86_64-arm-none-eabi/arm-gnu-toolchain-13.2.Rel1-x86_64-arm-none-eabi/bin/../lib/gcc/arm-none-eabi/13.2.1/../../../../arm-none-eabi/lib/thumb/v7-a/nofp/libg.a(libc_a-strlcpy.o)
 .debug_frame   0x00002d00       0x74 /home/mustafa/arm-gnu-toolchain-13.2.rel1-x86_64-arm-none-eabi/arm-gnu-toolchain-13.2.Rel1-x86_64-arm-none-eabi/bin/../lib/gcc/arm-none-eabi/13.2.1/../../../../arm-none-eabi/lib/thumb/v7-a/nofp/libg.a(libc_a-freer.o)
 .debug_frame   0x00002d74       0xa0 /home/mustafa/arm-gnu-toolchain-13.2.rel1-x86_64-arm-none-eabi/arm-gnu-toolchain-13.2.Rel1-x86_64-arm-none-eabi/bin/../lib/gcc/arm-none-eabi/13.2.1/../../../../arm-none-eabi/lib/thumb/v7-a/nofp/libg.a(libc_a-strtol.o)
 .debug_frame   0x00002e14       0x88 /home/mustafa/arm-gnu-toolchain-13.2.rel1-x86_64-arm-none-eabi/arm-gnu-toolchain-13.2.Rel1-x86_64-arm-none-eabi/bin/../lib/gcc/arm-none-eabi/13.2.1/../../../../arm-none-eabi/lib/thumb/v7-a/nofp/libg.a(libc_a-strtoul.o)
 .debug_frame   0x00002e9c       0x2c /home/mustafa/arm-gnu-toolchain-13.2.rel1-x86_64-arm-none-eabi/arm-gnu-toolchain-13.2.Rel1-x86_64-arm-none-eabi/bin/../lib/gcc/arm-none-eabi/13.2.1/../../../../arm-none-eabi/lib/thumb/v7-a/nofp/libg.a(libc_a-strncasecmp.o)
 .debug_frame   0x00002ec8       0x50 /home/mustafa/arm-gnu-toolchain-13.2.rel1-x86_64-arm-none-eabi/arm-gnu-toolchain-13.2.Rel1-x86_64-arm-none-eabi/bin/../lib/gcc/arm-none-eabi/13.2.1/../../../../arm-none-eabi/lib/thumb/v7-a/nofp/libg.a(libc_a-getenv_r.o)
 .debug_frame   0x00002f18       0x28 /home/mustafa/arm-gnu-toolchain-13.2.rel1-x86_64-arm-none-eabi/arm-gnu-toolchain-13.2.Rel1-x86_64-arm-none-eabi/bin/../lib/gcc/arm-none-eabi/13.2.1/../../../../arm-none-eabi/lib/thumb/v7-a/nofp/libg.a(libc_a-strncpy.o)
 .debug_frame   0x00002f40       0x20 /home/mustafa/arm-gnu-toolchain-13.2.rel1-x86_64-arm-none-eabi/arm-gnu-toolchain-13.2.Rel1-x86_64-arm-none-eabi/bin/../lib/gcc/arm-none-eabi/13.2.1/../../../../arm-none-eabi/lib/thumb/v7-a/nofp/libg.a(libc_a-gettzinfo.o)
 .debug_frame   0x00002f60       0x8c /home/mustafa/arm-gnu-toolchain-13.2.rel1-x86_64-arm-none-eabi/arm-gnu-toolchain-13.2.Rel1-x86_64-arm-none-eabi/bin/../lib/gcc/arm-none-eabi/13.2.1/../../../../arm-none-eabi/lib/thumb/v7-a/nofp/libg.a(libc_a-stdio.o)
 .debug_frame   0x00002fec       0xa4 /home/mustafa/arm-gnu-toolchain-13.2.rel1-x86_64-arm-none-eabi/arm-gnu-toolchain-13.2.Rel1-x86_64-arm-none-eabi/bin/../lib/gcc/arm-none-eabi/13.2.1/../../../../arm-none-eabi/lib/thumb/v7-a/nofp/libg.a(libc_a-wctomb_r.o)
 .debug_frame   0x00003090       0x2c /home/mustafa/arm-gnu-toolchain-13.2.rel1-x86_64-arm-none-eabi/arm-gnu-toolchain-13.2.Rel1-x86_64-arm-none-eabi/bin/../lib/gcc/arm-none-eabi/13.2.1/../../../../arm-none-eabi/lib/thumb/v7-a/nofp/libg.a(libc_a-sbrkr.o)
 .debug_frame   0x000030bc       0x64 /home/mustafa/arm-gnu-toolchain-13.2.rel1-x86_64-arm-none-eabi/arm-gnu-toolchain-13.2.Rel1-x86_64-arm-none-eabi/bin/../lib/gcc/arm-none-eabi/13.2.1/../../../../arm-none-eabi/lib/thumb/v7-a/nofp/libg.a(libc_a-fvwrite.o)
 .debug_frame   0x00003120       0x34 /home/mustafa/arm-gnu-toolchain-13.2.rel1-x86_64-arm-none-eabi/arm-gnu-toolchain-13.2.Rel1-x86_64-arm-none-eabi/bin/../lib/gcc/arm-none-eabi/13.2.1/../../../../arm-none-eabi/lib/thumb/v7-a/nofp/libg.a(libc_a-fwalk.o)
 .debug_frame   0x00003154       0x2c /home/mustafa/arm-gnu-toolchain-13.2.rel1-x86_64-arm-none-eabi/arm-gnu-toolchain-13.2.Rel1-x86_64-arm-none-eabi/bin/../lib/gcc/arm-none-eabi/13.2.1/../../../../arm-none-eabi/lib/thumb/v7-a/nofp/libg.a(libc_a-writer.o)
 .debug_frame   0x00003180       0x80 /home/mustafa/arm-gnu-toolchain-13.2.rel1-x86_64-arm-none-eabi/arm-gnu-toolchain-13.2.Rel1-x86_64-arm-none-eabi/bin/../lib/gcc/arm-none-eabi/13.2.1/../../../../arm-none-eabi/lib/thumb/v7-a/nofp/libg.a(libc_a-siscanf.o)
 .debug_frame   0x00003200       0xb4 /home/mustafa/arm-gnu-toolchain-13.2.rel1-x86_64-arm-none-eabi/arm-gnu-toolchain-13.2.Rel1-x86_64-arm-none-eabi/bin/../lib/gcc/arm-none-eabi/13.2.1/../../../../arm-none-eabi/lib/thumb/v7-a/nofp/libg.a(libc_a-svfiscanf.o)
 .debug_frame   0x000032b4       0x88 /home/mustafa/arm-gnu-toolchain-13.2.rel1-x86_64-arm-none-eabi/arm-gnu-toolchain-13.2.Rel1-x86_64-arm-none-eabi/bin/../lib/gcc/arm-none-eabi/13.2.1/../../../../arm-none-eabi/lib/thumb/v7-a/nofp/libg.a(libc_a-vfprintf.o)
 .debug_frame   0x0000333c       0xd0 /home/mustafa/arm-gnu-toolchain-13.2.rel1-x86_64-arm-none-eabi/arm-gnu-toolchain-13.2.Rel1-x86_64-arm-none-eabi/bin/../lib/gcc/arm-none-eabi/13.2.1/../../../../arm-none-eabi/lib/thumb/v7-a/nofp/libg.a(libc_a-vfiprintf.o)
 .debug_frame   0x0000340c       0x34 /home/mustafa/arm-gnu-toolchain-13.2.rel1-x86_64-arm-none-eabi/arm-gnu-toolchain-13.2.Rel1-x86_64-arm-none-eabi/bin/../lib/gcc/arm-none-eabi/13.2.1/../../../../arm-none-eabi/lib/thumb/v7-a/nofp/libg.a(libc_a-__atexit.o)
 .debug_frame   0x00003440      0x118 /home/mustafa/arm-gnu-toolchain-13.2.rel1-x86_64-arm-none-eabi/arm-gnu-toolchain-13.2.Rel1-x86_64-arm-none-eabi/bin/../lib/gcc/arm-none-eabi/13.2.1/../../../../arm-none-eabi/lib/thumb/v7-a/nofp/libg.a(libc_a-mbtowc_r.o)
 .debug_frame   0x00003558       0x5c /home/mustafa/arm-gnu-toolchain-13.2.rel1-x86_64-arm-none-eabi/arm-gnu-toolchain-13.2.Rel1-x86_64-arm-none-eabi/bin/../lib/gcc/arm-none-eabi/13.2.1/../../../../arm-none-eabi/lib/thumb/v7-a/nofp/libg.a(libc_a-mbrtowc.o)
 .debug_frame   0x000035b4       0x38 /home/mustafa/arm-gnu-toolchain-13.2.rel1-x86_64-arm-none-eabi/arm-gnu-toolchain-13.2.Rel1-x86_64-arm-none-eabi/bin/../lib/gcc/arm-none-eabi/13.2.1/../../../../arm-none-eabi/lib/thumb/v7-a/nofp/libg.a(libc_a-strcasecmp.o)
 .debug_frame   0x000035ec       0x28 /home/mustafa/arm-gnu-toolchain-13.2.rel1-x86_64-arm-none-eabi/arm-gnu-toolchain-13.2.Rel1-x86_64-arm-none-eabi/bin/../lib/gcc/arm-none-eabi/13.2.1/../../../../arm-none-eabi/lib/thumb/v7-a/nofp/libg.a(libc_a-strcat.o)
 .debug_frame   0x00003614       0x3c /home/mustafa/arm-gnu-toolchain-13.2.rel1-x86_64-arm-none-eabi/arm-gnu-toolchain-13.2.Rel1-x86_64-arm-none-eabi/bin/../lib/gcc/arm-none-eabi/13.2.1/../../../../arm-none-eabi/lib/thumb/v7-a/nofp/libg.a(libc_a-fclose.o)
 .debug_frame   0x00003650       0x2c /home/mustafa/arm-gnu-toolchain-13.2.rel1-x86_64-arm-none-eabi/arm-gnu-toolchain-13.2.Rel1-x86_64-arm-none-eabi/bin/../lib/gcc/arm-none-eabi/13.2.1/../../../../arm-none-eabi/lib/thumb/v7-a/nofp/libg.a(libc_a-wsetup.o)
 .debug_frame   0x0000367c       0x68 /home/mustafa/arm-gnu-toolchain-13.2.rel1-x86_64-arm-none-eabi/arm-gnu-toolchain-13.2.Rel1-x86_64-arm-none-eabi/bin/../lib/gcc/arm-none-eabi/13.2.1/../../../../arm-none-eabi/lib/thumb/v7-a/nofp/libg.a(libc_a-makebuf.o)
 .debug_frame   0x000036e4       0x48 /home/mustafa/arm-gnu-toolchain-13.2.rel1-x86_64-arm-none-eabi/arm-gnu-toolchain-13.2.Rel1-x86_64-arm-none-eabi/bin/../lib/gcc/arm-none-eabi/13.2.1/../../../../arm-none-eabi/lib/thumb/v7-a/nofp/libg.a(libc_a-putc.o)
 .debug_frame   0x0000372c       0x8c /home/mustafa/arm-gnu-toolchain-13.2.rel1-x86_64-arm-none-eabi/arm-gnu-toolchain-13.2.Rel1-x86_64-arm-none-eabi/bin/../lib/gcc/arm-none-eabi/13.2.1/../../../../arm-none-eabi/lib/thumb/v7-a/nofp/libg.a(libc_a-wcsnrtombs.o)
 .debug_frame   0x000037b8       0x20 /home/mustafa/arm-gnu-toolchain-13.2.rel1-x86_64-arm-none-eabi/arm-gnu-toolchain-13.2.Rel1-x86_64-arm-none-eabi/bin/../lib/gcc/arm-none-eabi/13.2.1/../../../../arm-none-eabi/lib/thumb/v7-a/nofp/libg.a(libc_a-realloc.o)
 .debug_frame   0x000037d8       0x7c /home/mustafa/arm-gnu-toolchain-13.2.rel1-x86_64-arm-none-eabi/arm-gnu-toolchain-13.2.Rel1-x86_64-arm-none-eabi/bin/../lib/gcc/arm-none-eabi/13.2.1/../../../../arm-none-eabi/lib/thumb/v7-a/nofp/libg.a(libc_a-dtoa.o)
 .debug_frame   0x00003854       0x2c /home/mustafa/arm-gnu-toolchain-13.2.rel1-x86_64-arm-none-eabi/arm-gnu-toolchain-13.2.Rel1-x86_64-arm-none-eabi/bin/../lib/gcc/arm-none-eabi/13.2.1/../../../../arm-none-eabi/lib/thumb/v7-a/nofp/libg.a(libc_a-closer.o)
 .debug_frame   0x00003880       0x3c /home/mustafa/arm-gnu-toolchain-13.2.rel1-x86_64-arm-none-eabi/arm-gnu-toolchain-13.2.Rel1-x86_64-arm-none-eabi/bin/../lib/gcc/arm-none-eabi/13.2.1/../../../../arm-none-eabi/lib/thumb/v7-a/nofp/libg.a(libc_a-reent.o)
 .debug_frame   0x000038bc       0x70 /home/mustafa/arm-gnu-toolchain-13.2.rel1-x86_64-arm-none-eabi/arm-gnu-toolchain-13.2.Rel1-x86_64-arm-none-eabi/bin/../lib/gcc/arm-none-eabi/13.2.1/../../../../arm-none-eabi/lib/thumb/v7-a/nofp/libg.a(libc_a-fflush.o)
 .debug_frame   0x0000392c       0x2c /home/mustafa/arm-gnu-toolchain-13.2.rel1-x86_64-arm-none-eabi/arm-gnu-toolchain-13.2.Rel1-x86_64-arm-none-eabi/bin/../lib/gcc/arm-none-eabi/13.2.1/../../../../arm-none-eabi/lib/thumb/v7-a/nofp/libg.a(libc_a-sccl.o)
 .debug_frame   0x00003958       0x30 /home/mustafa/arm-gnu-toolchain-13.2.rel1-x86_64-arm-none-eabi/arm-gnu-toolchain-13.2.Rel1-x86_64-arm-none-eabi/bin/../lib/gcc/arm-none-eabi/13.2.1/../../../../arm-none-eabi/lib/thumb/v7-a/nofp/libg.a(libm_a-s_frexp.o)
 .debug_frame   0x00003988       0x30 /home/mustafa/arm-gnu-toolchain-13.2.rel1-x86_64-arm-none-eabi/arm-gnu-toolchain-13.2.Rel1-x86_64-arm-none-eabi/bin/../lib/gcc/arm-none-eabi/13.2.1/../../../../arm-none-eabi/lib/thumb/v7-a/nofp/libg.a(libc_a-envlock.o)
 .debug_frame   0x000039b8       0x38 /home/mustafa/arm-gnu-toolchain-13.2.rel1-x86_64-arm-none-eabi/arm-gnu-toolchain-13.2.Rel1-x86_64-arm-none-eabi/bin/../lib/gcc/arm-none-eabi/13.2.1/../../../../arm-none-eabi/lib/thumb/v7-a/nofp/libg.a(libc_a-strncmp.o)
 .debug_frame   0x000039f0       0x88 /home/mustafa/arm-gnu-toolchain-13.2.rel1-x86_64-arm-none-eabi/arm-gnu-toolchain-13.2.Rel1-x86_64-arm-none-eabi/bin/../lib/gcc/arm-none-eabi/13.2.1/../../../../arm-none-eabi/lib/thumb/v7-a/nofp/libg.a(libc_a-strtoll.o)
 .debug_frame   0x00003a78       0x88 /home/mustafa/arm-gnu-toolchain-13.2.rel1-x86_64-arm-none-eabi/arm-gnu-toolchain-13.2.Rel1-x86_64-arm-none-eabi/bin/../lib/gcc/arm-none-eabi/13.2.1/../../../../arm-none-eabi/lib/thumb/v7-a/nofp/libg.a(libc_a-strtoull.o)
 .debug_frame   0x00003b00       0x2c /home/mustafa/arm-gnu-toolchain-13.2.rel1-x86_64-arm-none-eabi/arm-gnu-toolchain-13.2.Rel1-x86_64-arm-none-eabi/bin/../lib/gcc/arm-none-eabi/13.2.1/../../../../arm-none-eabi/lib/thumb/v7-a/nofp/libg.a(libc_a-fstatr.o)
 .debug_frame   0x00003b2c       0x2c /home/mustafa/arm-gnu-toolchain-13.2.rel1-x86_64-arm-none-eabi/arm-gnu-toolchain-13.2.Rel1-x86_64-arm-none-eabi/bin/../lib/gcc/arm-none-eabi/13.2.1/../../../../arm-none-eabi/lib/thumb/v7-a/nofp/libg.a(libc_a-isattyr.o)
 .debug_frame   0x00003b58       0x2c /home/mustafa/arm-gnu-toolchain-13.2.rel1-x86_64-arm-none-eabi/arm-gnu-toolchain-13.2.Rel1-x86_64-arm-none-eabi/bin/../lib/gcc/arm-none-eabi/13.2.1/../../../../arm-none-eabi/lib/thumb/v7-a/nofp/libg.a(libc_a-lseekr.o)
 .debug_frame   0x00003b84       0x2c /home/mustafa/arm-gnu-toolchain-13.2.rel1-x86_64-arm-none-eabi/arm-gnu-toolchain-13.2.Rel1-x86_64-arm-none-eabi/bin/../lib/gcc/arm-none-eabi/13.2.1/../../../../arm-none-eabi/lib/thumb/v7-a/nofp/libg.a(libc_a-readr.o)
 .debug_frame   0x00003bb0       0x20 /home/mustafa/arm-gnu-toolchain-13.2.rel1-x86_64-arm-none-eabi/arm-gnu-toolchain-13.2.Rel1-x86_64-arm-none-eabi/bin/../lib/gcc/arm-none-eabi/13.2.1/../../../../arm-none-eabi/lib/thumb/v7-a/nofp/libg.a(libc_a-iswspace.o)
 .debug_frame   0x00003bd0       0x28 /home/mustafa/arm-gnu-toolchain-13.2.rel1-x86_64-arm-none-eabi/arm-gnu-toolchain-13.2.Rel1-x86_64-arm-none-eabi/bin/../lib/gcc/arm-none-eabi/13.2.1/../../../../arm-none-eabi/lib/thumb/v7-a/nofp/libg.a(libc_a-iswspace_l.o)
 .debug_frame   0x00003bf8       0x80 /home/mustafa/arm-gnu-toolchain-13.2.rel1-x86_64-arm-none-eabi/arm-gnu-toolchain-13.2.Rel1-x86_64-arm-none-eabi/bin/../lib/gcc/arm-none-eabi/13.2.1/../../../../arm-none-eabi/lib/thumb/v7-a/nofp/libg.a(libc_a-fputwc.o)
 .debug_frame   0x00003c78       0x5c /home/mustafa/arm-gnu-toolchain-13.2.rel1-x86_64-arm-none-eabi/arm-gnu-toolchain-13.2.Rel1-x86_64-arm-none-eabi/bin/../lib/gcc/arm-none-eabi/13.2.1/../../../../arm-none-eabi/lib/thumb/v7-a/nofp/libg.a(libc_a-ungetc.o)
 .debug_frame   0x00003cd4       0x44 /home/mustafa/arm-gnu-toolchain-13.2.rel1-x86_64-arm-none-eabi/arm-gnu-toolchain-13.2.Rel1-x86_64-arm-none-eabi/bin/../lib/gcc/arm-none-eabi/13.2.1/../../../../arm-none-eabi/lib/thumb/v7-a/nofp/libg.a(libc_a-categories.o)
 .debug_frame   0x00003d18       0xa8 /home/mustafa/arm-gnu-toolchain-13.2.rel1-x86_64-arm-none-eabi/arm-gnu-toolchain-13.2.Rel1-x86_64-arm-none-eabi/bin/../lib/gcc/arm-none-eabi/13.2.1/../../../../arm-none-eabi/lib/thumb/v7-a/nofp/libg.a(libc_a-jp2uc.o)
 .debug_frame   0x00003dc0       0x40 /home/mustafa/arm-gnu-toolchain-13.2.rel1-x86_64-arm-none-eabi/arm-gnu-toolchain-13.2.Rel1-x86_64-arm-none-eabi/bin/../lib/gcc/arm-none-eabi/13.2.1/../../../../arm-none-eabi/lib/thumb/v7-a/nofp/libg.a(libc_a-wbuf.o)
 .debug_frame   0x00003e00       0x40 /home/mustafa/arm-gnu-toolchain-13.2.rel1-x86_64-arm-none-eabi/arm-gnu-toolchain-13.2.Rel1-x86_64-arm-none-eabi/bin/../lib/gcc/arm-none-eabi/13.2.1/../../../../arm-none-eabi/lib/thumb/v7-a/nofp/libg.a(libc_a-assert.o)
 .debug_frame   0x00003e40      0x254 /home/mustafa/arm-gnu-toolchain-13.2.rel1-x86_64-arm-none-eabi/arm-gnu-toolchain-13.2.Rel1-x86_64-arm-none-eabi/bin/../lib/gcc/arm-none-eabi/13.2.1/../../../../arm-none-eabi/lib/thumb/v7-a/nofp/libg.a(libc_a-mprec.o)
 .debug_frame   0x00004094       0x2c /home/mustafa/arm-gnu-toolchain-13.2.rel1-x86_64-arm-none-eabi/arm-gnu-toolchain-13.2.Rel1-x86_64-arm-none-eabi/bin/../lib/gcc/arm-none-eabi/13.2.1/../../../../arm-none-eabi/lib/thumb/v7-a/nofp/libg.a(libc_a-callocr.o)
 .debug_frame   0x000040c0       0x6c /home/mustafa/arm-gnu-toolchain-13.2.rel1-x86_64-arm-none-eabi/arm-gnu-toolchain-13.2.Rel1-x86_64-arm-none-eabi/bin/../lib/gcc/arm-none-eabi/13.2.1/../../../../arm-none-eabi/lib/thumb/v7-a/nofp/libg.a(libc_a-fiprintf.o)
 .debug_frame   0x0000412c       0x28 /home/mustafa/arm-gnu-toolchain-13.2.rel1-x86_64-arm-none-eabi/arm-gnu-toolchain-13.2.Rel1-x86_64-arm-none-eabi/bin/../lib/gcc/arm-none-eabi/13.2.1/../../../../arm-none-eabi/lib/thumb/v7-a/nofp/libg.a(libc_a-abort.o)
 .debug_frame   0x00004154      0x110 /home/mustafa/arm-gnu-toolchain-13.2.rel1-x86_64-arm-none-eabi/arm-gnu-toolchain-13.2.Rel1-x86_64-arm-none-eabi/bin/../lib/gcc/arm-none-eabi/13.2.1/../../../../arm-none-eabi/lib/thumb/v7-a/nofp/libg.a(libc_a-signal.o)
 .debug_frame   0x00004264       0x3c /home/mustafa/arm-gnu-toolchain-13.2.rel1-x86_64-arm-none-eabi/arm-gnu-toolchain-13.2.Rel1-x86_64-arm-none-eabi/bin/../lib/gcc/arm-none-eabi/13.2.1/../../../../arm-none-eabi/lib/thumb/v7-a/nofp/libg.a(libc_a-signalr.o)
 .debug_frame   0x000042a0       0x30 /home/mustafa/arm-gnu-toolchain-13.2.rel1-x86_64-arm-none-eabi/arm-gnu-toolchain-13.2.Rel1-x86_64-arm-none-eabi/bin/../lib/gcc/arm-none-eabi/13.2.1/thumb/v7-a/nofp/libgcc.a(_arm_muldf3.o)
 .debug_frame   0x000042d0       0x20 /home/mustafa/arm-gnu-toolchain-13.2.rel1-x86_64-arm-none-eabi/arm-gnu-toolchain-13.2.Rel1-x86_64-arm-none-eabi/bin/../lib/gcc/arm-none-eabi/13.2.1/thumb/v7-a/nofp/libgcc.a(_divsi3.o)
 .debug_frame   0x000042f0       0xac /home/mustafa/arm-gnu-toolchain-13.2.rel1-x86_64-arm-none-eabi/arm-gnu-toolchain-13.2.Rel1-x86_64-arm-none-eabi/bin/../lib/gcc/arm-none-eabi/13.2.1/thumb/v7-a/nofp/libgcc.a(_arm_addsubdf3.o)
 .debug_frame   0x0000439c       0x50 /home/mustafa/arm-gnu-toolchain-13.2.rel1-x86_64-arm-none-eabi/arm-gnu-toolchain-13.2.Rel1-x86_64-arm-none-eabi/bin/../lib/gcc/arm-none-eabi/13.2.1/thumb/v7-a/nofp/libgcc.a(_arm_muldivdf3.o)
 .debug_frame   0x000043ec       0xc4 /home/mustafa/arm-gnu-toolchain-13.2.rel1-x86_64-arm-none-eabi/arm-gnu-toolchain-13.2.Rel1-x86_64-arm-none-eabi/bin/../lib/gcc/arm-none-eabi/13.2.1/thumb/v7-a/nofp/libgcc.a(_arm_cmpdf2.o)
 .debug_frame   0x000044b0       0x20 /home/mustafa/arm-gnu-toolchain-13.2.rel1-x86_64-arm-none-eabi/arm-gnu-toolchain-13.2.Rel1-x86_64-arm-none-eabi/bin/../lib/gcc/arm-none-eabi/13.2.1/thumb/v7-a/nofp/libgcc.a(_arm_unorddf2.o)
 .debug_frame   0x000044d0       0x24 /home/mustafa/arm-gnu-toolchain-13.2.rel1-x86_64-arm-none-eabi/arm-gnu-toolchain-13.2.Rel1-x86_64-arm-none-eabi/bin/../lib/gcc/arm-none-eabi/13.2.1/thumb/v7-a/nofp/libgcc.a(_arm_fixdfsi.o)
 .debug_frame   0x000044f4       0x44 /home/mustafa/arm-gnu-toolchain-13.2.rel1-x86_64-arm-none-eabi/arm-gnu-toolchain-13.2.Rel1-x86_64-arm-none-eabi/bin/../lib/gcc/arm-none-eabi/13.2.1/thumb/v7-a/nofp/libgcc.a(_aeabi_ldivmod.o)
 .debug_frame   0x00004538       0x2c /home/mustafa/arm-gnu-toolchain-13.2.rel1-x86_64-arm-none-eabi/arm-gnu-toolchain-13.2.Rel1-x86_64-arm-none-eabi/bin/../lib/gcc/arm-none-eabi/13.2.1/thumb/v7-a/nofp/libgcc.a(_aeabi_uldivmod.o)
 .debug_frame   0x00004564       0x34 /home/mustafa/arm-gnu-toolchain-13.2.rel1-x86_64-arm-none-eabi/arm-gnu-toolchain-13.2.Rel1-x86_64-arm-none-eabi/bin/../lib/gcc/arm-none-eabi/13.2.1/thumb/v7-a/nofp/libgcc.a(_udivmoddi4.o)
 .debug_frame   0x00004598       0x20 /home/mustafa/arm-gnu-toolchain-13.2.rel1-x86_64-arm-none-eabi/arm-gnu-toolchain-13.2.Rel1-x86_64-arm-none-eabi/bin/../lib/gcc/arm-none-eabi/13.2.1/../../../../arm-none-eabi/lib/thumb/v7-a/nofp/libnosys.a(getpid.o)
 .debug_frame   0x000045b8       0x20 /home/mustafa/arm-gnu-toolchain-13.2.rel1-x86_64-arm-none-eabi/arm-gnu-toolchain-13.2.Rel1-x86_64-arm-none-eabi/bin/../lib/gcc/arm-none-eabi/13.2.1/../../../../arm-none-eabi/lib/thumb/v7-a/nofp/libnosys.a(kill.o)

.debug_line_str
                0x00000000      0x1d6
 .debug_line_str
                0x00000000      0x1d6 /home/mustafa/arm-gnu-toolchain-13.2.rel1-x86_64-arm-none-eabi/arm-gnu-toolchain-13.2.Rel1-x86_64-arm-none-eabi/bin/../lib/gcc/arm-none-eabi/13.2.1/thumb/v7-a/nofp/libgcc.a(_udivsi3.o)
                                 0xc2 (size before relaxing)
 .debug_line_str
                0x000001d6       0xc2 /home/mustafa/arm-gnu-toolchain-13.2.rel1-x86_64-arm-none-eabi/arm-gnu-toolchain-13.2.Rel1-x86_64-arm-none-eabi/bin/../lib/gcc/arm-none-eabi/13.2.1/thumb/v7-a/nofp/libgcc.a(_dvmd_tls.o)
 .debug_line_str
                0x000001d6       0xd7 /home/mustafa/arm-gnu-toolchain-13.2.rel1-x86_64-arm-none-eabi/arm-gnu-toolchain-13.2.Rel1-x86_64-arm-none-eabi/bin/../lib/gcc/arm-none-eabi/13.2.1/../../../../arm-none-eabi/lib/thumb/v7-a/nofp/libg.a(libc_a-strcmp.o)
 .debug_line_str
                0x000001d6       0xd1 /home/mustafa/arm-gnu-toolchain-13.2.rel1-x86_64-arm-none-eabi/arm-gnu-toolchain-13.2.Rel1-x86_64-arm-none-eabi/bin/../lib/gcc/arm-none-eabi/13.2.1/../../../../arm-none-eabi/lib/thumb/v7-a/nofp/libg.a(libc_a-memchr.o)
 .debug_line_str
                0x000001d6       0xd8 /home/mustafa/arm-gnu-toolchain-13.2.rel1-x86_64-arm-none-eabi/arm-gnu-toolchain-13.2.Rel1-x86_64-arm-none-eabi/bin/../lib/gcc/arm-none-eabi/13.2.1/../../../../arm-none-eabi/lib/thumb/v7-a/nofp/libg.a(libc_a-memcpy.o)
 .debug_line_str
                0x000001d6       0xd7 /home/mustafa/arm-gnu-toolchain-13.2.rel1-x86_64-arm-none-eabi/arm-gnu-toolchain-13.2.Rel1-x86_64-arm-none-eabi/bin/../lib/gcc/arm-none-eabi/13.2.1/../../../../arm-none-eabi/lib/thumb/v7-a/nofp/libg.a(libc_a-strlen.o)
 .debug_line_str
                0x000001d6       0xc3 /home/mustafa/arm-gnu-toolchain-13.2.rel1-x86_64-arm-none-eabi/arm-gnu-toolchain-13.2.Rel1-x86_64-arm-none-eabi/bin/../lib/gcc/arm-none-eabi/13.2.1/thumb/v7-a/nofp/libgcc.a(_arm_muldf3.o)
 .debug_line_str
                0x000001d6       0xc2 /home/mustafa/arm-gnu-toolchain-13.2.rel1-x86_64-arm-none-eabi/arm-gnu-toolchain-13.2.Rel1-x86_64-arm-none-eabi/bin/../lib/gcc/arm-none-eabi/13.2.1/thumb/v7-a/nofp/libgcc.a(_divsi3.o)
 .debug_line_str
                0x000001d6       0xc3 /home/mustafa/arm-gnu-toolchain-13.2.rel1-x86_64-arm-none-eabi/arm-gnu-toolchain-13.2.Rel1-x86_64-arm-none-eabi/bin/../lib/gcc/arm-none-eabi/13.2.1/thumb/v7-a/nofp/libgcc.a(_arm_addsubdf3.o)
 .debug_line_str
                0x000001d6       0xc3 /home/mustafa/arm-gnu-toolchain-13.2.rel1-x86_64-arm-none-eabi/arm-gnu-toolchain-13.2.Rel1-x86_64-arm-none-eabi/bin/../lib/gcc/arm-none-eabi/13.2.1/thumb/v7-a/nofp/libgcc.a(_arm_muldivdf3.o)
 .debug_line_str
                0x000001d6       0xc3 /home/mustafa/arm-gnu-toolchain-13.2.rel1-x86_64-arm-none-eabi/arm-gnu-toolchain-13.2.Rel1-x86_64-arm-none-eabi/bin/../lib/gcc/arm-none-eabi/13.2.1/thumb/v7-a/nofp/libgcc.a(_arm_cmpdf2.o)
 .debug_line_str
                0x000001d6       0xc3 /home/mustafa/arm-gnu-toolchain-13.2.rel1-x86_64-arm-none-eabi/arm-gnu-toolchain-13.2.Rel1-x86_64-arm-none-eabi/bin/../lib/gcc/arm-none-eabi/13.2.1/thumb/v7-a/nofp/libgcc.a(_arm_unorddf2.o)
 .debug_line_str
                0x000001d6       0xc3 /home/mustafa/arm-gnu-toolchain-13.2.rel1-x86_64-arm-none-eabi/arm-gnu-toolchain-13.2.Rel1-x86_64-arm-none-eabi/bin/../lib/gcc/arm-none-eabi/13.2.1/thumb/v7-a/nofp/libgcc.a(_arm_fixdfsi.o)
 .debug_line_str
                0x000001d6       0xbe /home/mustafa/arm-gnu-toolchain-13.2.rel1-x86_64-arm-none-eabi/arm-gnu-toolchain-13.2.Rel1-x86_64-arm-none-eabi/bin/../lib/gcc/arm-none-eabi/13.2.1/thumb/v7-a/nofp/libgcc.a(_aeabi_ldivmod.o)
 .debug_line_str
                0x000001d6       0xbe /home/mustafa/arm-gnu-toolchain-13.2.rel1-x86_64-arm-none-eabi/arm-gnu-toolchain-13.2.Rel1-x86_64-arm-none-eabi/bin/../lib/gcc/arm-none-eabi/13.2.1/thumb/v7-a/nofp/libgcc.a(_aeabi_uldivmod.o)
